(dp1
S'layout'
p2
(ilayout
Layout
p3
(dp4
S'capsules'
p5
(lp6
(I8
I5
tp7
a(I28
I5
tp8
a(I5
I12
tp9
a(I25
I12
tp10
asS'numGhosts'
p11
I4
sS'food'
p12
(igame
Grid
p13
(dp14
S'CELLS_PER_INT'
p15
I30
sS'width'
p16
I34
sS'data'
p17
(lp18
(lp19
I00
aI00
aI00
aI00
aI00
aI00
aI00
aI00
aI00
aI00
aI00
aI00
aI00
aI00
aI00
aI00
aI00
aI00
aa(lp20
I00
aI00
aI00
aI00
aI00
aI00
aI00
aI00
aI00
aI00
aI00
aI00
aI00
aI00
aI00
aI00
aI00
aI00
aa(lp21
I00
aI00
aI00
aI00
aI00
aI00
aI00
aI00
aI00
aI00
aI00
aI00
aI00
aI00
aI00
aI00
aI00
aI00
aa(lp22
I00
aI00
aI00
aI00
aI00
aI00
aI00
aI00
aI00
aI00
aI00
aI00
aI00
aI00
aI01
aI00
aI00
aI00
aa(lp23
I00
aI00
aI00
aI00
aI00
aI00
aI00
aI00
aI00
aI00
aI00
aI00
aI00
aI00
aI00
aI00
aI00
aI00
aa(lp24
I00
aI00
aI00
aI00
aI00
aI00
aI00
aI00
aI00
aI01
aI00
aI00
aI00
aI00
aI00
aI00
aI01
aI00
aa(lp25
I00
aI00
aI00
aI00
aI00
aI00
aI00
aI00
aI00
aI00
aI00
aI00
aI00
aI00
aI00
aI00
aI00
aI00
aa(lp26
I00
aI00
aI00
aI00
aI01
aI00
aI00
aI00
aI00
aI00
aI00
aI00
aI00
aI00
aI00
aI00
aI00
aI00
aa(lp27
I00
aI00
aI00
aI00
aI00
aI00
aI00
aI01
aI01
aI00
aI01
aI01
aI00
aI00
aI00
aI00
aI01
aI00
aa(lp28
I00
aI00
aI00
aI00
aI00
aI00
aI00
aI00
aI00
aI01
aI00
aI01
aI00
aI00
aI00
aI01
aI01
aI00
aa(lp29
I00
aI00
aI01
aI00
aI00
aI00
aI00
aI00
aI01
aI00
aI00
aI01
aI00
aI01
aI00
aI00
aI00
aI00
aa(lp30
I00
aI00
aI00
aI00
aI00
aI00
aI00
aI00
aI00
aI00
aI00
aI00
aI00
aI00
aI00
aI00
aI00
aI00
aa(lp31
I00
aI00
aI00
aI00
aI01
aI00
aI01
aI00
aI00
aI00
aI01
aI01
aI00
aI00
aI00
aI00
aI00
aI00
aa(lp32
I00
aI00
aI00
aI00
aI00
aI00
aI00
aI00
aI00
aI00
aI00
aI01
aI00
aI00
aI01
aI00
aI01
aI00
aa(lp33
I00
aI00
aI01
aI00
aI01
aI01
aI00
aI00
aI00
aI00
aI01
aI01
aI00
aI00
aI01
aI00
aI00
aI00
aa(lp34
I00
aI00
aI00
aI00
aI00
aI00
aI00
aI00
aI00
aI00
aI00
aI00
aI00
aI00
aI00
aI00
aI00
aI00
aa(lp35
I00
aI00
aI00
aI00
aI00
aI00
aI00
aI00
aI00
aI00
aI00
aI00
aI00
aI00
aI00
aI00
aI00
aI00
aa(lp36
I00
aI00
aI00
aI00
aI00
aI00
aI00
aI00
aI00
aI00
aI00
aI00
aI00
aI00
aI00
aI00
aI00
aI00
aa(lp37
I00
aI00
aI00
aI00
aI00
aI00
aI00
aI00
aI00
aI00
aI00
aI00
aI00
aI00
aI00
aI00
aI00
aI00
aa(lp38
I00
aI00
aI00
aI01
aI00
aI00
aI01
aI01
aI00
aI00
aI00
aI00
aI01
aI01
aI00
aI01
aI00
aI00
aa(lp39
I00
aI01
aI00
aI01
aI00
aI00
aI01
aI00
aI00
aI00
aI00
aI00
aI00
aI00
aI00
aI00
aI00
aI00
aa(lp40
I00
aI00
aI00
aI00
aI00
aI00
aI01
aI01
aI00
aI00
aI00
aI01
aI00
aI01
aI00
aI00
aI00
aI00
aa(lp41
I00
aI00
aI00
aI00
aI00
aI00
aI00
aI00
aI00
aI00
aI00
aI00
aI00
aI00
aI00
aI00
aI00
aI00
aa(lp42
I00
aI00
aI00
aI00
aI01
aI00
aI01
aI00
aI00
aI01
aI00
aI00
aI00
aI00
aI00
aI01
aI00
aI00
aa(lp43
I00
aI01
aI01
aI00
aI00
aI00
aI01
aI00
aI01
aI00
aI00
aI00
aI00
aI00
aI00
aI00
aI00
aI00
aa(lp44
I00
aI01
aI00
aI00
aI00
aI00
aI01
aI01
aI00
aI01
aI01
aI00
aI00
aI00
aI00
aI00
aI00
aI00
aa(lp45
I00
aI00
aI00
aI00
aI00
aI00
aI00
aI00
aI00
aI00
aI00
aI00
aI00
aI01
aI00
aI00
aI00
aI00
aa(lp46
I00
aI00
aI00
aI00
aI00
aI00
aI00
aI00
aI00
aI00
aI00
aI00
aI00
aI00
aI00
aI00
aI00
aI00
aa(lp47
I00
aI01
aI00
aI00
aI00
aI00
aI00
aI00
aI01
aI00
aI00
aI00
aI00
aI00
aI00
aI00
aI00
aI00
aa(lp48
I00
aI00
aI00
aI00
aI00
aI00
aI00
aI00
aI00
aI00
aI00
aI00
aI00
aI00
aI00
aI00
aI00
aI00
aa(lp49
I00
aI00
aI00
aI01
aI00
aI00
aI00
aI00
aI00
aI00
aI00
aI00
aI00
aI00
aI00
aI00
aI00
aI00
aa(lp50
I00
aI00
aI00
aI00
aI00
aI00
aI00
aI00
aI00
aI00
aI00
aI00
aI00
aI00
aI00
aI00
aI00
aI00
aa(lp51
I00
aI00
aI00
aI00
aI00
aI00
aI00
aI00
aI00
aI00
aI00
aI00
aI00
aI00
aI00
aI00
aI00
aI00
aa(lp52
I00
aI00
aI00
aI00
aI00
aI00
aI00
aI00
aI00
aI00
aI00
aI00
aI00
aI00
aI00
aI00
aI00
aI00
aasS'height'
p53
I18
sbsS'agentPositions'
p54
(lp55
(I00
(I1
I2
tp56
tp57
a(I00
(I32
I15
tp58
tp59
a(I00
(I1
I1
tp60
tp61
a(I00
(I32
I16
tp62
tp63
asg53
I18
sg16
I34
sS'walls'
p64
(igame
Grid
p65
(dp66
g15
I30
sg16
I34
sg17
(lp67
(lp68
I01
aI01
aI01
aI01
aI01
aI01
aI01
aI01
aI01
aI01
aI01
aI01
aI01
aI01
aI01
aI01
aI01
aI01
aa(lp69
I01
aI00
aI00
aI00
aI00
aI00
aI00
aI00
aI00
aI00
aI00
aI00
aI00
aI00
aI00
aI00
aI00
aI01
aa(lp70
I01
aI01
aI01
aI01
aI01
aI01
aI01
aI01
aI01
aI01
aI01
aI01
aI01
aI01
aI01
aI01
aI00
aI01
aa(lp71
I01
aI00
aI00
aI00
aI00
aI00
aI00
aI00
aI00
aI00
aI00
aI00
aI00
aI00
aI00
aI00
aI00
aI01
aa(lp72
I01
aI01
aI01
aI01
aI00
aI01
aI01
aI01
aI01
aI01
aI01
aI01
aI00
aI01
aI00
aI01
aI01
aI01
aa(lp73
I01
aI00
aI00
aI00
aI00
aI00
aI01
aI00
aI00
aI00
aI00
aI00
aI00
aI00
aI00
aI00
aI00
aI01
aa(lp74
I01
aI00
aI00
aI01
aI01
aI00
aI01
aI00
aI00
aI00
aI00
aI00
aI01
aI00
aI01
aI00
aI01
aI01
aa(lp75
I01
aI01
aI00
aI01
aI00
aI00
aI01
aI01
aI01
aI01
aI00
aI00
aI00
aI00
aI01
aI00
aI00
aI01
aa(lp76
I01
aI00
aI00
aI01
aI01
aI00
aI01
aI00
aI00
aI00
aI00
aI00
aI01
aI00
aI01
aI01
aI00
aI01
aa(lp77
I01
aI00
aI01
aI01
aI00
aI00
aI00
aI00
aI00
aI00
aI00
aI00
aI01
aI00
aI01
aI00
aI00
aI01
aa(lp78
I01
aI00
aI00
aI01
aI00
aI00
aI01
aI00
aI00
aI00
aI01
aI00
aI01
aI00
aI01
aI01
aI00
aI01
aa(lp79
I01
aI00
aI00
aI01
aI01
aI01
aI01
aI01
aI00
aI01
aI01
aI01
aI01
aI00
aI00
aI00
aI00
aI01
aa(lp80
I01
aI00
aI01
aI01
aI00
aI00
aI00
aI00
aI00
aI01
aI00
aI00
aI01
aI00
aI01
aI00
aI01
aI01
aa(lp81
I01
aI00
aI00
aI01
aI01
aI00
aI01
aI01
aI01
aI01
aI01
aI00
aI01
aI00
aI00
aI00
aI00
aI01
aa(lp82
I01
aI00
aI00
aI01
aI00
aI00
aI00
aI00
aI00
aI00
aI00
aI00
aI01
aI01
aI00
aI01
aI01
aI01
aa(lp83
I01
aI01
aI01
aI01
aI01
aI01
aI01
aI01
aI01
aI01
aI00
aI01
aI01
aI00
aI00
aI00
aI00
aI01
aa(lp84
I01
aI00
aI00
aI00
aI00
aI00
aI00
aI00
aI00
aI00
aI00
aI00
aI00
aI00
aI00
aI01
aI00
aI01
aa(lp85
I01
aI00
aI01
aI00
aI00
aI00
aI00
aI00
aI00
aI00
aI00
aI00
aI00
aI00
aI00
aI00
aI00
aI01
aa(lp86
I01
aI00
aI00
aI00
aI00
aI01
aI01
aI00
aI01
aI01
aI01
aI01
aI01
aI01
aI01
aI01
aI01
aI01
aa(lp87
I01
aI01
aI01
aI00
aI01
aI01
aI00
aI00
aI00
aI00
aI00
aI00
aI00
aI00
aI01
aI00
aI00
aI01
aa(lp88
I01
aI00
aI00
aI00
aI00
aI01
aI00
aI01
aI01
aI01
aI01
aI01
aI00
aI01
aI01
aI00
aI00
aI01
aa(lp89
I01
aI01
aI00
aI01
aI00
aI01
aI00
aI00
aI01
aI00
aI00
aI00
aI00
aI00
aI01
aI01
aI00
aI01
aa(lp90
I01
aI00
aI00
aI00
aI00
aI01
aI01
aI01
aI01
aI00
aI01
aI01
aI01
aI01
aI01
aI00
aI00
aI01
aa(lp91
I01
aI00
aI01
aI01
aI00
aI01
aI00
aI01
aI00
aI00
aI00
aI01
aI00
aI00
aI01
aI00
aI00
aI01
aa(lp92
I01
aI00
aI00
aI01
aI00
aI01
aI00
aI00
aI00
aI00
aI00
aI00
aI00
aI00
aI01
aI01
aI00
aI01
aa(lp93
I01
aI00
aI01
aI01
aI00
aI01
aI00
aI00
aI00
aI00
aI00
aI01
aI00
aI01
aI01
aI00
aI00
aI01
aa(lp94
I01
aI00
aI00
aI01
aI00
aI00
aI00
aI00
aI01
aI01
aI01
aI01
aI00
aI00
aI01
aI00
aI01
aI01
aa(lp95
I01
aI01
aI00
aI01
aI00
aI01
aI00
aI00
aI00
aI00
aI00
aI01
aI00
aI01
aI01
aI00
aI00
aI01
aa(lp96
I01
aI00
aI00
aI00
aI00
aI00
aI00
aI00
aI00
aI00
aI00
aI01
aI00
aI00
aI00
aI00
aI00
aI01
aa(lp97
I01
aI01
aI01
aI00
aI01
aI00
aI01
aI01
aI01
aI01
aI01
aI01
aI01
aI00
aI01
aI01
aI01
aI01
aa(lp98
I01
aI00
aI00
aI00
aI00
aI00
aI00
aI00
aI00
aI00
aI00
aI00
aI00
aI00
aI00
aI00
aI00
aI01
aa(lp99
I01
aI00
aI01
aI01
aI01
aI01
aI01
aI01
aI01
aI01
aI01
aI01
aI01
aI01
aI01
aI01
aI01
aI01
aa(lp100
I01
aI00
aI00
aI00
aI00
aI00
aI00
aI00
aI00
aI00
aI00
aI00
aI00
aI00
aI00
aI00
aI00
aI01
aa(lp101
I01
aI01
aI01
aI01
aI01
aI01
aI01
aI01
aI01
aI01
aI01
aI01
aI01
aI01
aI01
aI01
aI01
aI01
aasg53
I18
sbsS'layoutText'
p102
(lp103
S'%%%%%%%%%%%%%%%%%%%%%%%%%%%%%%%%%%'
p104
aS'%   %.% ..  %.%   %       %  % %4%'
p105
aS'% % %   %.%   % % %. % .%    % %2%'
p106
aS'% %.  %%%%% %..   %%%%%%%%%% % % %'
p107
aS'% % %     .   %   %.%.%  %.%   % %'
p108
aS'% %  o% %%%%%%%%  %.  %  o   % % %'
p109
aS'% % %   ...%...%  % %.%% %%%%% % %'
p110
aS'% % %   . %%.%.   % % %  .%  % % %'
p111
aS'% % %. % . %%% %  % %  . .%  % % %'
p112
aS'% % %  %. .  % %  % %%% . % .% % %'
p113
aS'% % %  %.  % % %   .%.%% .   % % %'
p114
aS'% % %%%%% %%.% %  %...%...   % % %'
p115
aS'% % %   o  %  .%  %%%%%%%% %o  % %'
p116
aS'% %   %.%  %.%.%   %   .     % % %'
p117
aS'% % % %%%%%%%%%%   ..% %%%%%  .% %'
p118
aS'%1% %    %. % .% % %   %.%   % % %'
p119
aS'%3% %  %       %   %.%  .. %.%   %'
p120
aS'%%%%%%%%%%%%%%%%%%%%%%%%%%%%%%%%%%'
p121
asbsS'blueTeamName'
p122
S'TeamToast'
p123
sS'actions'
p124
(lp125
(I0
S'North'
p126
tp127
a(I1
S'South'
p128
tp129
a(I2
g126
tp130
a(I3
g128
tp131
a(I0
g126
tp132
a(I1
g128
tp133
a(I2
g126
tp134
a(I3
g128
tp135
a(I0
g126
tp136
a(I1
g128
tp137
a(I2
g126
tp138
a(I3
g128
tp139
a(I0
g126
tp140
a(I1
g128
tp141
a(I2
g126
tp142
a(I3
g128
tp143
a(I0
g126
tp144
a(I1
g128
tp145
a(I2
g126
tp146
a(I3
g128
tp147
a(I0
g126
tp148
a(I1
g128
tp149
a(I2
g126
tp150
a(I3
g128
tp151
a(I0
g126
tp152
a(I1
g128
tp153
a(I2
g126
tp154
a(I3
g128
tp155
a(I0
g126
tp156
a(I1
g128
tp157
a(I2
g126
tp158
a(I3
g128
tp159
a(I0
g126
tp160
a(I1
g128
tp161
a(I2
g126
tp162
a(I3
g128
tp163
a(I0
g126
tp164
a(I1
g128
tp165
a(I2
g126
tp166
a(I3
g128
tp167
a(I0
g126
tp168
a(I1
g128
tp169
a(I2
g126
tp170
a(I3
g128
tp171
a(I0
g126
tp172
a(I1
g128
tp173
a(I2
g126
tp174
a(I3
g128
tp175
a(I0
g126
tp176
a(I1
g128
tp177
a(I2
g126
tp178
a(I3
g128
tp179
a(I0
g126
tp180
a(I1
g128
tp181
a(I2
g126
tp182
a(I3
g128
tp183
a(I0
S'East'
p184
tp185
a(I1
S'West'
p186
tp187
a(I2
g126
tp188
a(I3
g128
tp189
a(I0
g184
tp190
a(I1
g186
tp191
a(I2
g184
tp192
a(I3
g186
tp193
a(I0
g128
tp194
a(I1
g126
tp195
a(I2
g184
tp196
a(I3
g186
tp197
a(I0
g128
tp198
a(I1
g126
tp199
a(I2
g128
tp200
a(I3
g126
tp201
a(I0
g184
tp202
a(I1
g186
tp203
a(I2
g128
tp204
a(I3
g126
tp205
a(I0
g184
tp206
a(I1
g186
tp207
a(I2
g184
tp208
a(I3
g126
tp209
a(I0
g128
tp210
a(I1
g126
tp211
a(I2
g184
tp212
a(I3
g126
tp213
a(I0
g184
tp214
a(I1
g186
tp215
a(I2
g128
tp216
a(I3
g126
tp217
a(I0
g184
tp218
a(I1
g186
tp219
a(I2
g184
tp220
a(I3
g126
tp221
a(I0
g184
tp222
a(I1
g186
tp223
a(I2
g184
tp224
a(I3
g126
tp225
a(I0
g184
tp226
a(I1
g186
tp227
a(I2
g184
tp228
a(I3
g126
tp229
a(I0
g184
tp230
a(I1
g186
tp231
a(I2
g184
tp232
a(I3
g126
tp233
a(I0
g184
tp234
a(I1
g186
tp235
a(I2
g184
tp236
a(I3
g126
tp237
a(I0
g184
tp238
a(I1
g186
tp239
a(I2
g184
tp240
a(I3
g126
tp241
a(I0
g184
tp242
a(I1
g186
tp243
a(I2
g184
tp244
a(I3
g126
tp245
a(I0
g126
tp246
a(I1
g128
tp247
a(I2
g184
tp248
a(I3
g126
tp249
a(I0
g184
tp250
a(I1
g186
tp251
a(I2
g126
tp252
a(I3
g126
tp253
a(I0
g184
tp254
a(I1
g186
tp255
a(I2
g184
tp256
a(I3
g126
tp257
a(I0
g128
tp258
a(I1
g186
tp259
a(I2
g184
tp260
a(I3
g128
tp261
a(I0
g184
tp262
a(I1
g126
tp263
a(I2
g184
tp264
a(I3
g128
tp265
a(I0
g128
tp266
a(I1
g126
tp267
a(I2
g128
tp268
a(I3
g128
tp269
a(I0
g184
tp270
a(I1
g186
tp271
a(I2
g184
tp272
a(I3
g128
tp273
a(I0
g128
tp274
a(I1
g126
tp275
a(I2
g128
tp276
a(I3
g128
tp277
a(I0
g128
tp278
a(I1
g126
tp279
a(I2
g128
tp280
a(I3
g128
tp281
a(I0
g128
tp282
a(I1
g126
tp283
a(I2
g128
tp284
a(I3
g128
tp285
a(I0
g186
tp286
a(I1
S'Stop'
p287
tp288
a(I2
g128
tp289
a(I3
g128
tp290
a(I0
g128
tp291
a(I1
g128
tp292
a(I2
g128
tp293
a(I3
g128
tp294
a(I0
g184
tp295
a(I1
g128
tp296
a(I2
g128
tp297
a(I3
g128
tp298
a(I0
g128
tp299
a(I1
g128
tp300
a(I2
g184
tp301
a(I3
g128
tp302
a(I0
g184
tp303
a(I1
g128
tp304
a(I2
g184
tp305
a(I3
g128
tp306
a(I0
g184
tp307
a(I1
g128
tp308
a(I2
g126
tp309
a(I3
g128
tp310
a(I0
g128
tp311
a(I1
g128
tp312
a(I2
g126
tp313
a(I3
g186
tp314
a(I0
g184
tp315
a(I1
g128
tp316
a(I2
g126
tp317
a(I3
g186
tp318
a(I0
g184
tp319
a(I1
g128
tp320
a(I2
g126
tp321
a(I3
g128
tp322
a(I0
g126
tp323
a(I1
g128
tp324
a(I2
g126
tp325
a(I3
g186
tp326
a(I0
g128
tp327
a(I1
g128
tp328
a(I2
g126
tp329
a(I3
g186
tp330
a(I0
g186
tp331
a(I1
g128
tp332
a(I2
g128
tp333
a(I3
g128
tp334
a(I0
g186
tp335
a(I1
g128
tp336
a(I2
g184
tp337
a(I3
g186
tp338
a(I0
g126
tp339
a(I1
g128
tp340
a(I2
g184
tp341
a(I3
g186
tp342
a(I0
g186
tp343
a(I1
g128
tp344
a(I2
g126
tp345
a(I3
g186
tp346
a(I0
g186
tp347
a(I1
g186
tp348
a(I2
g128
tp349
a(I3
g186
tp350
a(I0
g128
tp351
a(I1
g186
tp352
a(I2
g128
tp353
a(I3
g126
tp354
a(I0
g128
tp355
a(I1
g126
tp356
a(I2
g128
tp357
a(I3
g126
tp358
a(I0
g128
tp359
a(I1
g126
tp360
a(I2
g128
tp361
a(I3
g126
tp362
a(I0
g184
tp363
a(I1
g186
tp364
a(I2
g184
tp365
a(I3
g186
tp366
a(I0
g186
tp367
a(I1
g186
tp368
a(I2
g184
tp369
a(I3
g186
tp370
a(I0
g186
tp371
a(I1
g126
tp372
a(I2
g184
tp373
a(I3
g128
tp374
a(I0
g126
tp375
a(I1
g186
tp376
a(I2
g128
tp377
a(I3
g128
tp378
a(I0
g126
tp379
a(I1
g186
tp380
a(I2
g184
tp381
a(I3
g184
tp382
a(I0
g126
tp383
a(I1
g186
tp384
a(I2
g126
tp385
a(I3
g184
tp386
a(I0
g184
tp387
a(I1
g186
tp388
a(I2
g126
tp389
a(I3
g126
tp390
a(I0
g128
tp391
a(I1
g186
tp392
a(I2
g186
tp393
a(I3
g126
tp394
a(I0
g128
tp395
a(I1
g186
tp396
a(I2
g126
tp397
a(I3
g186
tp398
a(I0
g128
tp399
a(I1
g186
tp400
a(I2
g126
tp401
a(I3
g186
tp402
a(I0
g126
tp403
a(I1
g186
tp404
a(I2
g184
tp405
a(I3
g128
tp406
a(I0
g128
tp407
a(I1
g128
tp408
a(I2
g184
tp409
a(I3
g186
tp410
a(I0
g184
tp411
a(I1
g186
tp412
a(I2
g126
tp413
a(I3
g186
tp414
a(I0
g128
tp415
a(I1
g287
tp416
a(I2
g128
tp417
a(I3
g128
tp418
a(I0
g184
tp419
a(I1
g128
tp420
a(I2
g186
tp421
a(I3
g128
tp422
a(I0
g184
tp423
a(I1
g128
tp424
a(I2
g186
tp425
a(I3
g128
tp426
a(I0
g128
tp427
a(I1
g128
tp428
a(I2
g128
tp429
a(I3
g128
tp430
a(I0
g128
tp431
a(I1
g128
tp432
a(I2
g128
tp433
a(I3
g128
tp434
a(I0
g126
tp435
a(I1
g128
tp436
a(I2
g128
tp437
a(I3
g128
tp438
a(I0
g184
tp439
a(I1
g128
tp440
a(I2
g128
tp441
a(I3
g128
tp442
a(I0
g184
tp443
a(I1
g128
tp444
a(I2
g128
tp445
a(I3
g128
tp446
a(I0
g126
tp447
a(I1
g128
tp448
a(I2
g128
tp449
a(I3
g128
tp450
a(I0
g126
tp451
a(I1
g128
tp452
a(I2
g186
tp453
a(I3
g128
tp454
a(I0
g184
tp455
a(I1
g128
tp456
a(I2
g184
tp457
a(I3
g128
tp458
a(I0
g186
tp459
a(I1
g128
tp460
a(I2
g184
tp461
a(I3
g128
tp462
a(I0
g128
tp463
a(I1
g128
tp464
a(I2
g126
tp465
a(I3
g128
tp466
a(I0
g128
tp467
a(I1
g128
tp468
a(I2
g184
tp469
a(I3
g128
tp470
a(I0
g128
tp471
a(I1
g128
tp472
a(I2
g184
tp473
a(I3
g128
tp474
a(I0
g184
tp475
a(I1
g186
tp476
a(I2
g126
tp477
a(I3
g186
tp478
a(I0
g184
tp479
a(I1
g186
tp480
a(I2
g184
tp481
a(I3
g186
tp482
a(I0
g126
tp483
a(I1
g126
tp484
a(I2
g128
tp485
a(I3
g126
tp486
a(I0
g128
tp487
a(I1
g126
tp488
a(I2
g128
tp489
a(I3
g126
tp490
a(I0
g184
tp491
a(I1
g186
tp492
a(I2
g128
tp493
a(I3
g126
tp494
a(I0
g184
tp495
a(I1
g186
tp496
a(I2
g128
tp497
a(I3
g126
tp498
a(I0
g126
tp499
a(I1
g287
tp500
a(I2
g128
tp501
a(I3
g186
tp502
a(I0
g184
tp503
a(I1
g128
tp504
a(I2
g128
tp505
a(I3
g186
tp506
a(I0
g184
tp507
a(I1
g128
tp508
a(I2
g128
tp509
a(I3
g128
tp510
a(I0
g126
tp511
a(I1
g128
tp512
a(I2
g126
tp513
a(I3
g186
tp514
a(I0
g184
tp515
a(I1
g128
tp516
a(I2
g126
tp517
a(I3
g184
tp518
a(I0
g184
tp519
asS'length'
p520
I1200
sS'agents'
p521
(lp522
(igame
Agent
p523
(dp524
S'index'
p525
I0
sba(igame
Agent
p526
(dp527
g525
I0
sba(igame
Agent
p528
(dp529
g525
I0
sba(igame
Agent
p530
(dp531
g525
I0
sbasS'redTeamName'
p532
S'GotoFail'
p533
s.