(dp1
S'layout'
p2
(ilayout
Layout
p3
(dp4
S'capsules'
p5
(lp6
(I23
I2
tp7
a(I19
I5
tp8
a(I14
I12
tp9
a(I10
I15
tp10
asS'numGhosts'
p11
I4
sS'food'
p12
(igame
Grid
p13
(dp14
S'CELLS_PER_INT'
p15
I30
sS'width'
p16
I34
sS'data'
p17
(lp18
(lp19
I00
aI00
aI00
aI00
aI00
aI00
aI00
aI00
aI00
aI00
aI00
aI00
aI00
aI00
aI00
aI00
aI00
aI00
aa(lp20
I00
aI00
aI00
aI00
aI00
aI00
aI00
aI00
aI01
aI00
aI00
aI00
aI00
aI00
aI01
aI00
aI01
aI00
aa(lp21
I00
aI00
aI00
aI00
aI00
aI00
aI00
aI00
aI01
aI00
aI00
aI00
aI00
aI00
aI01
aI00
aI01
aI00
aa(lp22
I00
aI00
aI00
aI00
aI00
aI00
aI00
aI00
aI00
aI00
aI00
aI00
aI00
aI00
aI00
aI00
aI00
aI00
aa(lp23
I00
aI00
aI00
aI00
aI00
aI00
aI01
aI00
aI00
aI00
aI00
aI00
aI00
aI00
aI00
aI00
aI00
aI00
aa(lp24
I00
aI00
aI00
aI00
aI00
aI00
aI00
aI00
aI01
aI00
aI00
aI00
aI00
aI00
aI00
aI00
aI00
aI00
aa(lp25
I00
aI00
aI00
aI00
aI00
aI00
aI00
aI00
aI01
aI00
aI00
aI00
aI00
aI00
aI00
aI00
aI00
aI00
aa(lp26
I00
aI01
aI00
aI00
aI00
aI00
aI00
aI00
aI00
aI00
aI00
aI00
aI00
aI00
aI00
aI00
aI00
aI00
aa(lp27
I00
aI01
aI00
aI01
aI01
aI00
aI00
aI00
aI01
aI01
aI00
aI00
aI00
aI00
aI00
aI00
aI00
aI00
aa(lp28
I00
aI00
aI00
aI00
aI00
aI00
aI00
aI00
aI00
aI00
aI00
aI00
aI00
aI00
aI00
aI00
aI00
aI00
aa(lp29
I00
aI01
aI01
aI00
aI00
aI00
aI00
aI00
aI01
aI01
aI00
aI00
aI01
aI00
aI00
aI00
aI01
aI00
aa(lp30
I00
aI00
aI00
aI00
aI00
aI00
aI00
aI00
aI00
aI00
aI00
aI00
aI00
aI00
aI00
aI00
aI00
aI00
aa(lp31
I00
aI01
aI01
aI00
aI00
aI01
aI00
aI00
aI01
aI01
aI00
aI00
aI00
aI00
aI00
aI00
aI01
aI00
aa(lp32
I00
aI00
aI00
aI00
aI00
aI00
aI00
aI00
aI00
aI00
aI00
aI00
aI00
aI00
aI00
aI00
aI00
aI00
aa(lp33
I00
aI01
aI01
aI00
aI00
aI00
aI00
aI00
aI00
aI00
aI00
aI00
aI00
aI00
aI00
aI00
aI01
aI00
aa(lp34
I00
aI00
aI00
aI00
aI00
aI00
aI00
aI00
aI00
aI00
aI00
aI00
aI00
aI00
aI00
aI00
aI00
aI00
aa(lp35
I00
aI00
aI00
aI00
aI00
aI00
aI00
aI00
aI00
aI00
aI00
aI00
aI00
aI00
aI00
aI00
aI00
aI00
aa(lp36
I00
aI00
aI00
aI00
aI00
aI00
aI00
aI00
aI00
aI00
aI00
aI00
aI00
aI00
aI00
aI00
aI00
aI00
aa(lp37
I00
aI00
aI00
aI00
aI00
aI00
aI00
aI00
aI00
aI00
aI00
aI00
aI00
aI00
aI00
aI00
aI00
aI00
aa(lp38
I00
aI01
aI00
aI00
aI00
aI00
aI00
aI00
aI00
aI00
aI00
aI00
aI00
aI00
aI00
aI01
aI01
aI00
aa(lp39
I00
aI00
aI00
aI00
aI00
aI00
aI00
aI00
aI00
aI00
aI00
aI00
aI00
aI00
aI00
aI00
aI00
aI00
aa(lp40
I00
aI01
aI00
aI00
aI00
aI00
aI00
aI00
aI01
aI01
aI00
aI00
aI01
aI00
aI00
aI01
aI01
aI00
aa(lp41
I00
aI00
aI00
aI00
aI00
aI00
aI00
aI00
aI00
aI00
aI00
aI00
aI00
aI00
aI00
aI00
aI00
aI00
aa(lp42
I00
aI01
aI00
aI00
aI00
aI01
aI00
aI00
aI01
aI01
aI00
aI00
aI00
aI00
aI00
aI01
aI01
aI00
aa(lp43
I00
aI00
aI00
aI00
aI00
aI00
aI00
aI00
aI00
aI00
aI00
aI00
aI00
aI00
aI00
aI00
aI00
aI00
aa(lp44
I00
aI00
aI00
aI00
aI00
aI00
aI00
aI00
aI01
aI01
aI00
aI00
aI00
aI01
aI01
aI00
aI01
aI00
aa(lp45
I00
aI00
aI00
aI00
aI00
aI00
aI00
aI00
aI00
aI00
aI00
aI00
aI00
aI00
aI00
aI00
aI01
aI00
aa(lp46
I00
aI00
aI00
aI00
aI00
aI00
aI00
aI00
aI00
aI01
aI00
aI00
aI00
aI00
aI00
aI00
aI00
aI00
aa(lp47
I00
aI00
aI00
aI00
aI00
aI00
aI00
aI00
aI00
aI01
aI00
aI00
aI00
aI00
aI00
aI00
aI00
aI00
aa(lp48
I00
aI00
aI00
aI00
aI00
aI00
aI00
aI00
aI00
aI00
aI00
aI01
aI00
aI00
aI00
aI00
aI00
aI00
aa(lp49
I00
aI00
aI00
aI00
aI00
aI00
aI00
aI00
aI00
aI00
aI00
aI00
aI00
aI00
aI00
aI00
aI00
aI00
aa(lp50
I00
aI01
aI00
aI01
aI00
aI00
aI00
aI00
aI00
aI01
aI00
aI00
aI00
aI00
aI00
aI00
aI00
aI00
aa(lp51
I00
aI01
aI00
aI01
aI00
aI00
aI00
aI00
aI00
aI01
aI00
aI00
aI00
aI00
aI00
aI00
aI00
aI00
aa(lp52
I00
aI00
aI00
aI00
aI00
aI00
aI00
aI00
aI00
aI00
aI00
aI00
aI00
aI00
aI00
aI00
aI00
aI00
aasS'height'
p53
I18
sbsS'agentPositions'
p54
(lp55
(I00
(I1
I2
tp56
tp57
a(I00
(I32
I15
tp58
tp59
a(I00
(I1
I1
tp60
tp61
a(I00
(I32
I16
tp62
tp63
asg53
I18
sg16
I34
sS'walls'
p64
(igame
Grid
p65
(dp66
g15
I30
sg16
I34
sg17
(lp67
(lp68
I01
aI01
aI01
aI01
aI01
aI01
aI01
aI01
aI01
aI01
aI01
aI01
aI01
aI01
aI01
aI01
aI01
aI01
aa(lp69
I01
aI00
aI00
aI00
aI00
aI00
aI00
aI01
aI00
aI01
aI00
aI00
aI00
aI01
aI00
aI01
aI00
aI01
aa(lp70
I01
aI00
aI01
aI00
aI00
aI01
aI00
aI01
aI00
aI01
aI00
aI01
aI00
aI01
aI00
aI01
aI00
aI01
aa(lp71
I01
aI00
aI01
aI00
aI01
aI01
aI00
aI00
aI00
aI01
aI00
aI01
aI00
aI01
aI00
aI01
aI00
aI01
aa(lp72
I01
aI00
aI01
aI00
aI00
aI01
aI00
aI01
aI00
aI00
aI00
aI01
aI00
aI00
aI00
aI00
aI00
aI01
aa(lp73
I01
aI00
aI01
aI00
aI01
aI01
aI00
aI01
aI00
aI01
aI00
aI01
aI00
aI01
aI00
aI01
aI00
aI01
aa(lp74
I01
aI00
aI00
aI00
aI00
aI00
aI00
aI01
aI00
aI01
aI00
aI01
aI00
aI01
aI00
aI01
aI00
aI01
aa(lp75
I01
aI00
aI01
aI01
aI01
aI00
aI01
aI01
aI01
aI01
aI00
aI01
aI00
aI01
aI00
aI01
aI00
aI01
aa(lp76
I01
aI00
aI01
aI00
aI00
aI00
aI00
aI01
aI00
aI00
aI00
aI00
aI00
aI01
aI00
aI00
aI00
aI01
aa(lp77
I01
aI01
aI01
aI01
aI01
aI01
aI00
aI01
aI01
aI01
aI01
aI00
aI01
aI01
aI01
aI00
aI01
aI01
aa(lp78
I01
aI00
aI00
aI00
aI00
aI01
aI00
aI01
aI00
aI00
aI00
aI00
aI00
aI01
aI00
aI00
aI00
aI01
aa(lp79
I01
aI01
aI01
aI01
aI00
aI01
aI00
aI01
aI01
aI01
aI01
aI01
aI01
aI01
aI00
aI01
aI01
aI01
aa(lp80
I01
aI00
aI00
aI00
aI00
aI00
aI00
aI01
aI00
aI00
aI00
aI00
aI00
aI00
aI00
aI00
aI00
aI01
aa(lp81
I01
aI01
aI01
aI01
aI01
aI01
aI01
aI01
aI01
aI01
aI00
aI01
aI00
aI01
aI01
aI00
aI01
aI01
aa(lp82
I01
aI00
aI00
aI00
aI00
aI00
aI00
aI00
aI00
aI00
aI00
aI00
aI00
aI00
aI00
aI00
aI00
aI01
aa(lp83
I01
aI01
aI01
aI01
aI01
aI01
aI01
aI01
aI00
aI00
aI00
aI00
aI01
aI01
aI00
aI01
aI01
aI01
aa(lp84
I01
aI00
aI00
aI00
aI00
aI00
aI00
aI00
aI00
aI00
aI01
aI00
aI00
aI00
aI00
aI00
aI00
aI01
aa(lp85
I01
aI00
aI00
aI00
aI00
aI00
aI00
aI01
aI00
aI00
aI00
aI00
aI00
aI00
aI00
aI00
aI00
aI01
aa(lp86
I01
aI01
aI01
aI00
aI01
aI01
aI00
aI00
aI00
aI00
aI01
aI01
aI01
aI01
aI01
aI01
aI01
aI01
aa(lp87
I01
aI00
aI00
aI00
aI00
aI00
aI00
aI00
aI00
aI00
aI00
aI00
aI00
aI00
aI00
aI00
aI00
aI01
aa(lp88
I01
aI01
aI00
aI01
aI01
aI00
aI01
aI00
aI01
aI01
aI01
aI01
aI01
aI01
aI01
aI01
aI01
aI01
aa(lp89
I01
aI00
aI00
aI00
aI00
aI00
aI00
aI00
aI00
aI00
aI01
aI00
aI00
aI00
aI00
aI00
aI00
aI01
aa(lp90
I01
aI01
aI01
aI00
aI01
aI01
aI01
aI01
aI01
aI01
aI01
aI00
aI01
aI00
aI01
aI01
aI01
aI01
aa(lp91
I01
aI00
aI00
aI00
aI01
aI00
aI00
aI00
aI00
aI00
aI01
aI00
aI01
aI00
aI00
aI00
aI00
aI01
aa(lp92
I01
aI01
aI00
aI01
aI01
aI01
aI00
aI01
aI01
aI01
aI01
aI00
aI01
aI01
aI01
aI01
aI01
aI01
aa(lp93
I01
aI00
aI00
aI00
aI01
aI00
aI00
aI00
aI00
aI00
aI01
aI00
aI00
aI00
aI00
aI01
aI00
aI01
aa(lp94
I01
aI00
aI01
aI00
aI01
aI00
aI01
aI00
aI01
aI01
aI01
aI01
aI00
aI01
aI01
aI01
aI00
aI01
aa(lp95
I01
aI00
aI01
aI00
aI01
aI00
aI01
aI00
aI01
aI00
aI01
aI00
aI00
aI00
aI00
aI00
aI00
aI01
aa(lp96
I01
aI00
aI01
aI00
aI01
aI00
aI01
aI00
aI01
aI00
aI01
aI00
aI01
aI01
aI00
aI01
aI00
aI01
aa(lp97
I01
aI00
aI00
aI00
aI00
aI00
aI01
aI00
aI00
aI00
aI01
aI00
aI01
aI00
aI00
aI01
aI00
aI01
aa(lp98
I01
aI00
aI01
aI00
aI01
aI00
aI01
aI00
aI01
aI00
aI00
aI00
aI01
aI01
aI00
aI01
aI00
aI01
aa(lp99
I01
aI00
aI01
aI00
aI01
aI00
aI01
aI00
aI01
aI00
aI01
aI00
aI01
aI00
aI00
aI01
aI00
aI01
aa(lp100
I01
aI00
aI01
aI00
aI01
aI00
aI00
aI00
aI01
aI00
aI01
aI00
aI00
aI00
aI00
aI00
aI00
aI01
aa(lp101
I01
aI01
aI01
aI01
aI01
aI01
aI01
aI01
aI01
aI01
aI01
aI01
aI01
aI01
aI01
aI01
aI01
aI01
aasg53
I18
sbsS'layoutText'
p102
(lp103
S'%%%%%%%%%%%%%%%%%%%%%%%%%%%%%%%%%%'
p104
aS'%..      %.%.%.%  %.%.%.%..     4%'
p105
aS'%%%% %%%  o%   %  %.%.%.%%% %%%%2%'
p106
aS'%..      %   %    % % % %.%      %'
p107
aS'%%%% %%%%%%% % %  % %   %.% % %  %'
p108
aS'%        %.%  o%  % %.%%%   %%%% %'
p109
aS'% %%%%%%   % %    % %     %  .   %'
p110
aS'%        % %    % % %%%%%%%%%% %%%'
p111
aS'%%%% %%%.%.%.%      %.%.%.%..  ..%'
p112
aS'%..  ..%.%.%.%      %.%.%.%%% %%%%'
p113
aS'%%% %%%%%%%%%% % %    % %        %'
p114
aS'%   .  %     % %    % %   %%%%%% %'
p115
aS'% %%%%   %%%.% %  %o  %.%        %'
p116
aS'%  % % %.%   % %  % % %%%%%%% %%%%'
p117
aS'%      %.% % % %    %   %      ..%'
p118
aS'%1%%%% %%%.%.%.%  %   %o  %%% %%%%'
p119
aS'%3     ..%.%.%.%  %.%.%.%      ..%'
p120
aS'%%%%%%%%%%%%%%%%%%%%%%%%%%%%%%%%%%'
p121
asbsS'blueTeamName'
p122
S'IntelligentAgent'
p123
sS'actions'
p124
(lp125
(I0
S'North'
p126
tp127
a(I1
S'South'
p128
tp129
a(I2
g126
tp130
a(I3
g128
tp131
a(I0
g126
tp132
a(I1
g128
tp133
a(I2
g126
tp134
a(I3
g128
tp135
a(I0
g126
tp136
a(I1
g128
tp137
a(I2
g126
tp138
a(I3
g128
tp139
a(I0
g126
tp140
a(I1
g128
tp141
a(I2
g126
tp142
a(I3
g128
tp143
a(I0
S'East'
p144
tp145
a(I1
S'West'
p146
tp147
a(I2
g126
tp148
a(I3
g128
tp149
a(I0
g144
tp150
a(I1
g146
tp151
a(I2
g144
tp152
a(I3
g146
tp153
a(I0
g126
tp154
a(I1
g128
tp155
a(I2
g144
tp156
a(I3
g146
tp157
a(I0
g126
tp158
a(I1
g128
tp159
a(I2
g126
tp160
a(I3
g128
tp161
a(I0
g144
tp162
a(I1
g146
tp163
a(I2
g126
tp164
a(I3
g128
tp165
a(I0
g126
tp166
a(I1
g128
tp167
a(I2
g144
tp168
a(I3
g146
tp169
a(I0
g126
tp170
a(I1
g128
tp171
a(I2
g126
tp172
a(I3
g128
tp173
a(I0
g146
tp174
a(I1
g144
tp175
a(I2
g126
tp176
a(I3
g128
tp177
a(I0
g146
tp178
a(I1
g144
tp179
a(I2
g146
tp180
a(I3
g144
tp181
a(I0
g146
tp182
a(I1
g144
tp183
a(I2
g146
tp184
a(I3
g144
tp185
a(I0
g126
tp186
a(I1
g128
tp187
a(I2
g146
tp188
a(I3
g144
tp189
a(I0
g126
tp190
a(I1
g128
tp191
a(I2
g126
tp192
a(I3
g128
tp193
a(I0
g144
tp194
a(I1
g146
tp195
a(I2
g126
tp196
a(I3
g128
tp197
a(I0
g144
tp198
a(I1
g146
tp199
a(I2
g144
tp200
a(I3
g146
tp201
a(I0
g144
tp202
a(I1
g146
tp203
a(I2
g144
tp204
a(I3
g146
tp205
a(I0
g126
tp206
a(I1
g128
tp207
a(I2
g144
tp208
a(I3
g146
tp209
a(I0
g126
tp210
a(I1
g128
tp211
a(I2
g126
tp212
a(I3
g128
tp213
a(I0
g144
tp214
a(I1
g146
tp215
a(I2
g126
tp216
a(I3
g128
tp217
a(I0
g144
tp218
a(I1
g146
tp219
a(I2
g144
tp220
a(I3
g146
tp221
a(I0
g144
tp222
a(I1
g146
tp223
a(I2
g144
tp224
a(I3
g146
tp225
a(I0
g144
tp226
a(I1
g146
tp227
a(I2
g144
tp228
a(I3
g146
tp229
a(I0
g126
tp230
a(I1
g128
tp231
a(I2
g144
tp232
a(I3
g146
tp233
a(I0
g144
tp234
a(I1
g146
tp235
a(I2
g126
tp236
a(I3
g128
tp237
a(I0
g144
tp238
a(I1
g146
tp239
a(I2
g144
tp240
a(I3
g146
tp241
a(I0
g128
tp242
a(I1
g126
tp243
a(I2
g144
tp244
a(I3
g146
tp245
a(I0
g144
tp246
a(I1
g146
tp247
a(I2
g128
tp248
a(I3
g126
tp249
a(I0
g144
tp250
a(I1
g146
tp251
a(I2
g144
tp252
a(I3
g146
tp253
a(I0
g128
tp254
a(I1
g126
tp255
a(I2
g144
tp256
a(I3
g146
tp257
a(I0
g128
tp258
a(I1
g126
tp259
a(I2
g128
tp260
a(I3
g126
tp261
a(I0
g128
tp262
a(I1
g146
tp263
a(I2
g128
tp264
a(I3
g126
tp265
a(I0
g128
tp266
a(I1
g146
tp267
a(I2
g144
tp268
a(I3
g146
tp269
a(I0
g144
tp270
a(I1
g126
tp271
a(I2
g144
tp272
a(I3
g146
tp273
a(I0
g144
tp274
a(I1
g146
tp275
a(I2
g128
tp276
a(I3
g126
tp277
a(I0
g144
tp278
a(I1
g146
tp279
a(I2
g128
tp280
a(I3
g146
tp281
a(I0
g128
tp282
a(I1
g146
tp283
a(I2
g144
tp284
a(I3
g146
tp285
a(I0
g144
tp286
a(I1
g126
tp287
a(I2
g128
tp288
a(I3
g146
tp289
a(I0
g128
tp290
a(I1
S'Stop'
p291
tp292
a(I2
g144
tp293
a(I3
g126
tp294
a(I0
g128
tp295
a(I1
g128
tp296
a(I2
g144
tp297
a(I3
g128
tp298
a(I0
g128
tp299
a(I1
g128
tp300
a(I2
g144
tp301
a(I3
g128
tp302
a(I0
g144
tp303
a(I1
g128
tp304
a(I2
g144
tp305
a(I3
g128
tp306
a(I0
g144
tp307
a(I1
g128
tp308
a(I2
g126
tp309
a(I3
g128
tp310
a(I0
g126
tp311
a(I1
g146
tp312
a(I2
g126
tp313
a(I3
g128
tp314
a(I0
g144
tp315
a(I1
g146
tp316
a(I2
g126
tp317
a(I3
g146
tp318
a(I0
g144
tp319
a(I1
g128
tp320
a(I2
g126
tp321
a(I3
g146
tp322
a(I0
g144
tp323
a(I1
g128
tp324
a(I2
g126
tp325
a(I3
g128
tp326
a(I0
g126
tp327
a(I1
g146
tp328
a(I2
g126
tp329
a(I3
g128
tp330
a(I0
g126
tp331
a(I1
g128
tp332
a(I2
g126
tp333
a(I3
g146
tp334
a(I0
g128
tp335
a(I1
g128
tp336
a(I2
g128
tp337
a(I3
g128
tp338
a(I0
g128
tp339
a(I1
g144
tp340
a(I2
g128
tp341
a(I3
g128
tp342
a(I0
g128
tp343
a(I1
g144
tp344
a(I2
g128
tp345
a(I3
g144
tp346
a(I0
g128
tp347
a(I1
g144
tp348
a(I2
g128
tp349
a(I3
g144
tp350
a(I0
g128
tp351
a(I1
g128
tp352
a(I2
g128
tp353
a(I3
g144
tp354
a(I0
g128
tp355
a(I1
g128
tp356
a(I2
g128
tp357
a(I3
g128
tp358
a(I0
g128
tp359
a(I1
g146
tp360
a(I2
g128
tp361
a(I3
g128
tp362
a(I0
g128
tp363
a(I1
g146
tp364
a(I2
g128
tp365
a(I3
g146
tp366
a(I0
g126
tp367
a(I1
g146
tp368
a(I2
g128
tp369
a(I3
g146
tp370
a(I0
g146
tp371
a(I1
g128
tp372
a(I2
g144
tp373
a(I3
g146
tp374
a(I0
g146
tp375
a(I1
g128
tp376
a(I2
g144
tp377
a(I3
g128
tp378
a(I0
g128
tp379
a(I1
g146
tp380
a(I2
g128
tp381
a(I3
g128
tp382
a(I0
g126
tp383
a(I1
g146
tp384
a(I2
g128
tp385
a(I3
g146
tp386
a(I0
g144
tp387
a(I1
g146
tp388
a(I2
g128
tp389
a(I3
g146
tp390
a(I0
g144
tp391
a(I1
g146
tp392
a(I2
g128
tp393
a(I3
g146
tp394
a(I0
g126
tp395
a(I1
g128
tp396
a(I2
g126
tp397
a(I3
g146
tp398
a(I0
g126
tp399
a(I1
g146
tp400
a(I2
g126
tp401
a(I3
g128
tp402
a(I0
g126
tp403
a(I1
g146
tp404
a(I2
g128
tp405
a(I3
g146
tp406
a(I0
g146
tp407
a(I1
g126
tp408
a(I2
g128
tp409
a(I3
g146
tp410
a(I0
g146
tp411
a(I1
g146
tp412
a(I2
g144
tp413
a(I3
g126
tp414
a(I0
g128
tp415
a(I1
g128
tp416
a(I2
g144
tp417
a(I3
g128
tp418
a(I0
g128
tp419
a(I1
g128
tp420
a(I2
g128
tp421
a(I3
g128
tp422
a(I0
g128
tp423
a(I1
g128
tp424
a(I2
g128
tp425
a(I3
g128
tp426
a(I0
g144
tp427
a(I1
g128
tp428
a(I2
g126
tp429
a(I3
g128
tp430
a(I0
g144
tp431
a(I1
g146
tp432
a(I2
g144
tp433
a(I3
g128
tp434
a(I0
g126
tp435
a(I1
g146
tp436
a(I2
g144
tp437
a(I3
g146
tp438
a(I0
g144
tp439
a(I1
g128
tp440
a(I2
g126
tp441
a(I3
g146
tp442
a(I0
g144
tp443
a(I1
g128
tp444
a(I2
g144
tp445
a(I3
g128
tp446
a(I0
g128
tp447
a(I1
g146
tp448
a(I2
g144
tp449
a(I3
g128
tp450
a(I0
g144
tp451
a(I1
g128
tp452
a(I2
g144
tp453
a(I3
g146
tp454
a(I0
g144
tp455
a(I1
g128
tp456
a(I2
g144
tp457
a(I3
g128
tp458
a(I0
g128
tp459
a(I1
g144
tp460
a(I2
g126
tp461
a(I3
g128
tp462
a(I0
g144
tp463
a(I1
g144
tp464
a(I2
g126
tp465
a(I3
g144
tp466
a(I0
g144
tp467
a(I1
g144
tp468
a(I2
g144
tp469
a(I3
g144
tp470
a(I0
g144
tp471
a(I1
g128
tp472
a(I2
g144
tp473
a(I3
g144
tp474
a(I0
g144
tp475
a(I1
g128
tp476
a(I2
g144
tp477
a(I3
g128
tp478
a(I0
g144
tp479
a(I1
g128
tp480
a(I2
g126
tp481
a(I3
g128
tp482
a(I0
g144
tp483
a(I1
g128
tp484
a(I2
g126
tp485
a(I3
g128
tp486
a(I0
g144
tp487
a(I1
g128
tp488
a(I2
g146
tp489
a(I3
g128
tp490
a(I0
g146
tp491
a(I1
g128
tp492
a(I2
g146
tp493
a(I3
g128
tp494
a(I0
g146
tp495
a(I1
g146
tp496
a(I2
g146
tp497
a(I3
g128
tp498
a(I0
g146
tp499
a(I1
g146
tp500
a(I2
g144
tp501
a(I3
g146
tp502
a(I0
g126
tp503
a(I1
g128
tp504
a(I2
g144
tp505
a(I3
g146
tp506
a(I0
g126
tp507
a(I1
g128
tp508
a(I2
g144
tp509
a(I3
g128
tp510
a(I0
g144
tp511
a(I1
g146
tp512
a(I2
g128
tp513
a(I3
g128
tp514
a(I0
g144
tp515
a(I1
g128
tp516
a(I2
g128
tp517
a(I3
g146
tp518
a(I0
g144
tp519
a(I1
g128
tp520
a(I2
g146
tp521
a(I3
g128
tp522
a(I0
g146
tp523
a(I1
g144
tp524
a(I2
g146
tp525
a(I3
g128
tp526
a(I0
g146
tp527
a(I1
g144
tp528
a(I2
g146
tp529
a(I3
g144
tp530
a(I0
g146
tp531
a(I1
g144
tp532
a(I2
g128
tp533
a(I3
g144
tp534
a(I0
g126
tp535
a(I1
g128
tp536
a(I2
g128
tp537
a(I3
g144
tp538
a(I0
g128
tp539
a(I1
g128
tp540
a(I2
g144
tp541
a(I3
g128
tp542
a(I0
g144
tp543
a(I1
g146
tp544
a(I2
g144
tp545
a(I3
g128
tp546
a(I0
g144
tp547
a(I1
g146
tp548
a(I2
g144
tp549
a(I3
g146
tp550
a(I0
g146
tp551
a(I1
g146
tp552
a(I2
g146
tp553
a(I3
g146
tp554
a(I0
g144
tp555
a(I1
g128
tp556
a(I2
g144
tp557
a(I3
g146
tp558
a(I0
g144
tp559
a(I1
g128
tp560
a(I2
g146
tp561
a(I3
g128
tp562
a(I0
g146
tp563
a(I1
g146
tp564
a(I2
g144
tp565
a(I3
g128
tp566
a(I0
g144
tp567
a(I1
g146
tp568
a(I2
g146
tp569
a(I3
g146
tp570
a(I0
g146
tp571
a(I1
g146
tp572
a(I2
g144
tp573
a(I3
g146
tp574
a(I0
g146
tp575
a(I1
g146
tp576
a(I2
g146
tp577
a(I3
g146
tp578
a(I0
g144
tp579
a(I1
g128
tp580
a(I2
g144
tp581
a(I3
g146
tp582
a(I0
g146
tp583
a(I1
g146
tp584
a(I2
g146
tp585
a(I3
g128
tp586
a(I0
g146
tp587
a(I1
g146
tp588
a(I2
g146
tp589
a(I3
g146
tp590
a(I0
g126
tp591
a(I1
g126
tp592
a(I2
g146
tp593
a(I3
g146
tp594
a(I0
g126
tp595
a(I1
g146
tp596
a(I2
g126
tp597
a(I3
g126
tp598
a(I0
g146
tp599
a(I1
g146
tp600
a(I2
g126
tp601
a(I3
g146
tp602
a(I0
g146
tp603
a(I1
g126
tp604
a(I2
g144
tp605
a(I3
g146
tp606
a(I0
g146
tp607
a(I1
g126
tp608
a(I2
g144
tp609
a(I3
g126
tp610
a(I0
g146
tp611
a(I1
g146
tp612
a(I2
g144
tp613
a(I3
g126
tp614
a(I0
g126
tp615
a(I1
g146
tp616
a(I2
g126
tp617
a(I3
g146
tp618
a(I0
g126
tp619
a(I1
g126
tp620
a(I2
g126
tp621
a(I3
g146
tp622
a(I0
g126
tp623
a(I1
g146
tp624
a(I2
g146
tp625
a(I3
g126
tp626
a(I0
g126
tp627
a(I1
g146
tp628
a(I2
g146
tp629
a(I3
g146
tp630
a(I0
g128
tp631
a(I1
g146
tp632
a(I2
g146
tp633
a(I3
g146
tp634
a(I0
g128
tp635
a(I1
g126
tp636
a(I2
g126
tp637
a(I3
g146
tp638
a(I0
g128
tp639
a(I1
g126
tp640
a(I2
g126
tp641
a(I3
g126
tp642
a(I0
g146
tp643
a(I1
g146
tp644
a(I2
g146
tp645
a(I3
g126
tp646
a(I0
g146
tp647
a(I1
g146
tp648
a(I2
g146
tp649
a(I3
g146
tp650
a(I0
g128
tp651
a(I1
g128
tp652
a(I2
g144
tp653
a(I3
g146
tp654
a(I0
g126
tp655
a(I1
g128
tp656
a(I2
g144
tp657
a(I3
g126
tp658
a(I0
g126
tp659
a(I1
g128
tp660
a(I2
g144
tp661
a(I3
g126
tp662
a(I0
g126
tp663
a(I1
g128
tp664
a(I2
g144
tp665
a(I3
g126
tp666
a(I0
g126
tp667
a(I1
g128
tp668
a(I2
g144
tp669
a(I3
g126
tp670
a(I0
g128
tp671
a(I1
g128
tp672
a(I2
g146
tp673
a(I3
g126
tp674
a(I0
g128
tp675
a(I1
g128
tp676
a(I2
g146
tp677
a(I3
g126
tp678
a(I0
g128
tp679
a(I1
g126
tp680
a(I2
g126
tp681
a(I3
g126
tp682
a(I0
g144
tp683
a(I1
g126
tp684
a(I2
g126
tp685
a(I3
g126
tp686
a(I0
g144
tp687
a(I1
g126
tp688
a(I2
g146
tp689
a(I3
g128
tp690
a(I0
g126
tp691
a(I1
g126
tp692
a(I2
g146
tp693
a(I3
g146
tp694
a(I0
g144
tp695
a(I1
g126
tp696
a(I2
g146
tp697
a(I3
g146
tp698
a(I0
g144
tp699
a(I1
g126
tp700
a(I2
g126
tp701
a(I3
g126
tp702
a(I0
g144
tp703
a(I1
g126
tp704
a(I2
g146
tp705
a(I3
g128
tp706
a(I0
g144
tp707
a(I1
g126
tp708
a(I2
g146
tp709
a(I3
g128
tp710
a(I0
g126
tp711
a(I1
g126
tp712
a(I2
g126
tp713
a(I3
g146
tp714
a(I0
g126
tp715
a(I1
g146
tp716
a(I2
g126
tp717
a(I3
g146
tp718
a(I0
g144
tp719
a(I1
g146
tp720
a(I2
g128
tp721
a(I3
g126
tp722
a(I0
g126
tp723
a(I1
g128
tp724
a(I2
g128
tp725
a(I3
g126
tp726
a(I0
g126
tp727
a(I1
g128
tp728
a(I2
g128
tp729
a(I3
g128
tp730
a(I0
g146
tp731
a(I1
g126
tp732
a(I2
g146
tp733
a(I3
g146
tp734
a(I0
g146
tp735
a(I1
g126
tp736
a(I2
g146
tp737
a(I3
g146
tp738
a(I0
g146
tp739
a(I1
g126
tp740
a(I2
g146
tp741
a(I3
g126
tp742
a(I0
g126
tp743
a(I1
g126
tp744
a(I2
g146
tp745
a(I3
g146
tp746
a(I0
g126
tp747
a(I1
g126
tp748
a(I2
g126
tp749
a(I3
g146
tp750
a(I0
g126
tp751
a(I1
g126
tp752
a(I2
g126
tp753
a(I3
g146
tp754
a(I0
g126
tp755
a(I1
g146
tp756
a(I2
g126
tp757
a(I3
g146
tp758
a(I0
g126
tp759
a(I1
g146
tp760
a(I2
g126
tp761
a(I3
g146
tp762
a(I0
g146
tp763
a(I1
g126
tp764
a(I2
g126
tp765
a(I3
g146
tp766
a(I0
g146
tp767
asS'length'
p768
I1200
sS'agents'
p769
(lp770
(igame
Agent
p771
(dp772
S'index'
p773
I0
sba(igame
Agent
p774
(dp775
g773
I0
sba(igame
Agent
p776
(dp777
g773
I0
sba(igame
Agent
p778
(dp779
g773
I0
sbasS'redTeamName'
p780
S'GotoFail'
p781
s.