(dp1
S'layout'
p2
(ilayout
Layout
p3
(dp4
S'capsules'
p5
(lp6
(I6
I5
tp7
a(I25
I10
tp8
asS'numGhosts'
p9
I4
sS'food'
p10
(igame
Grid
p11
(dp12
S'CELLS_PER_INT'
p13
I30
sS'width'
p14
I32
sS'data'
p15
(lp16
(lp17
I00
aI00
aI00
aI00
aI00
aI00
aI00
aI00
aI00
aI00
aI00
aI00
aI00
aI00
aI00
aI00
aa(lp18
I00
aI00
aI00
aI00
aI00
aI00
aI00
aI00
aI00
aI00
aI00
aI00
aI00
aI00
aI00
aI00
aa(lp19
I00
aI00
aI00
aI00
aI00
aI00
aI00
aI00
aI00
aI00
aI00
aI00
aI00
aI00
aI00
aI00
aa(lp20
I00
aI01
aI01
aI00
aI00
aI00
aI00
aI00
aI01
aI00
aI00
aI00
aI00
aI00
aI00
aI00
aa(lp21
I00
aI00
aI00
aI00
aI00
aI00
aI00
aI00
aI00
aI00
aI00
aI00
aI00
aI00
aI00
aI00
aa(lp22
I00
aI01
aI00
aI00
aI00
aI00
aI00
aI00
aI00
aI00
aI00
aI00
aI01
aI00
aI01
aI00
aa(lp23
I00
aI00
aI00
aI00
aI00
aI00
aI00
aI00
aI00
aI00
aI00
aI00
aI00
aI00
aI00
aI00
aa(lp24
I00
aI00
aI00
aI01
aI00
aI00
aI00
aI00
aI01
aI01
aI00
aI00
aI00
aI00
aI00
aI00
aa(lp25
I00
aI00
aI00
aI01
aI00
aI00
aI00
aI00
aI00
aI01
aI00
aI00
aI00
aI00
aI01
aI00
aa(lp26
I00
aI00
aI00
aI00
aI00
aI01
aI00
aI00
aI00
aI00
aI00
aI01
aI00
aI00
aI00
aI00
aa(lp27
I00
aI00
aI00
aI01
aI00
aI00
aI00
aI01
aI00
aI01
aI00
aI01
aI00
aI00
aI01
aI00
aa(lp28
I00
aI00
aI00
aI00
aI00
aI00
aI00
aI00
aI00
aI00
aI00
aI00
aI00
aI00
aI00
aI00
aa(lp29
I00
aI00
aI00
aI00
aI00
aI00
aI00
aI00
aI00
aI00
aI00
aI00
aI00
aI00
aI00
aI00
aa(lp30
I00
aI00
aI00
aI00
aI00
aI00
aI00
aI00
aI00
aI00
aI00
aI00
aI00
aI00
aI00
aI00
aa(lp31
I00
aI00
aI00
aI00
aI00
aI00
aI00
aI00
aI00
aI01
aI00
aI00
aI00
aI00
aI00
aI00
aa(lp32
I00
aI00
aI00
aI00
aI00
aI00
aI00
aI00
aI00
aI00
aI00
aI00
aI00
aI00
aI00
aI00
aa(lp33
I00
aI00
aI00
aI00
aI00
aI00
aI00
aI00
aI00
aI00
aI00
aI00
aI00
aI00
aI00
aI00
aa(lp34
I00
aI00
aI00
aI00
aI00
aI00
aI01
aI00
aI00
aI00
aI00
aI00
aI00
aI00
aI00
aI00
aa(lp35
I00
aI00
aI00
aI00
aI00
aI00
aI00
aI00
aI00
aI00
aI00
aI00
aI00
aI00
aI00
aI00
aa(lp36
I00
aI00
aI00
aI00
aI00
aI00
aI00
aI00
aI00
aI00
aI00
aI00
aI00
aI00
aI00
aI00
aa(lp37
I00
aI00
aI00
aI00
aI00
aI00
aI00
aI00
aI00
aI00
aI00
aI00
aI00
aI00
aI00
aI00
aa(lp38
I00
aI01
aI00
aI00
aI01
aI00
aI01
aI00
aI01
aI00
aI00
aI00
aI01
aI00
aI00
aI00
aa(lp39
I00
aI00
aI00
aI00
aI01
aI00
aI00
aI00
aI00
aI00
aI01
aI00
aI00
aI00
aI00
aI00
aa(lp40
I00
aI01
aI00
aI00
aI00
aI00
aI01
aI00
aI00
aI00
aI00
aI00
aI01
aI00
aI00
aI00
aa(lp41
I00
aI00
aI00
aI00
aI00
aI00
aI01
aI01
aI00
aI00
aI00
aI00
aI01
aI00
aI00
aI00
aa(lp42
I00
aI00
aI00
aI00
aI00
aI00
aI00
aI00
aI00
aI00
aI00
aI00
aI00
aI00
aI00
aI00
aa(lp43
I00
aI01
aI00
aI01
aI00
aI00
aI00
aI00
aI00
aI00
aI00
aI00
aI00
aI00
aI01
aI00
aa(lp44
I00
aI00
aI00
aI00
aI00
aI00
aI00
aI00
aI00
aI00
aI00
aI00
aI00
aI00
aI00
aI00
aa(lp45
I00
aI00
aI00
aI00
aI00
aI00
aI00
aI01
aI00
aI00
aI00
aI00
aI00
aI01
aI01
aI00
aa(lp46
I00
aI00
aI00
aI00
aI00
aI00
aI00
aI00
aI00
aI00
aI00
aI00
aI00
aI00
aI00
aI00
aa(lp47
I00
aI00
aI00
aI00
aI00
aI00
aI00
aI00
aI00
aI00
aI00
aI00
aI00
aI00
aI00
aI00
aa(lp48
I00
aI00
aI00
aI00
aI00
aI00
aI00
aI00
aI00
aI00
aI00
aI00
aI00
aI00
aI00
aI00
aasS'height'
p49
I16
sbsS'agentPositions'
p50
(lp51
(I00
(I1
I2
tp52
tp53
a(I00
(I30
I13
tp54
tp55
a(I00
(I1
I1
tp56
tp57
a(I00
(I30
I14
tp58
tp59
asg49
I16
sg14
I32
sS'walls'
p60
(igame
Grid
p61
(dp62
g13
I30
sg14
I32
sg15
(lp63
(lp64
I01
aI01
aI01
aI01
aI01
aI01
aI01
aI01
aI01
aI01
aI01
aI01
aI01
aI01
aI01
aI01
aa(lp65
I01
aI00
aI00
aI00
aI00
aI00
aI00
aI00
aI00
aI00
aI00
aI00
aI00
aI00
aI00
aI01
aa(lp66
I01
aI01
aI01
aI01
aI01
aI01
aI01
aI01
aI01
aI01
aI01
aI01
aI01
aI01
aI00
aI01
aa(lp67
I01
aI00
aI00
aI00
aI00
aI00
aI00
aI01
aI00
aI01
aI00
aI00
aI00
aI00
aI00
aI01
aa(lp68
I01
aI01
aI01
aI01
aI01
aI01
aI00
aI00
aI00
aI00
aI00
aI01
aI01
aI01
aI01
aI01
aa(lp69
I01
aI00
aI00
aI00
aI00
aI00
aI00
aI00
aI01
aI01
aI00
aI01
aI00
aI01
aI00
aI01
aa(lp70
I01
aI01
aI00
aI01
aI01
aI00
aI01
aI01
aI01
aI00
aI00
aI00
aI00
aI00
aI00
aI01
aa(lp71
I01
aI00
aI00
aI00
aI01
aI00
aI00
aI01
aI00
aI00
aI01
aI01
aI01
aI00
aI01
aI01
aa(lp72
I01
aI00
aI01
aI00
aI01
aI01
aI00
aI01
aI01
aI00
aI01
aI00
aI00
aI00
aI00
aI01
aa(lp73
I01
aI00
aI01
aI01
aI01
aI00
aI00
aI01
aI01
aI01
aI01
aI00
aI01
aI00
aI01
aI01
aa(lp74
I01
aI00
aI01
aI00
aI01
aI01
aI00
aI00
aI01
aI00
aI01
aI00
aI01
aI00
aI00
aI01
aa(lp75
I01
aI00
aI00
aI00
aI00
aI01
aI00
aI01
aI01
aI00
aI01
aI01
aI01
aI00
aI01
aI01
aa(lp76
I01
aI01
aI00
aI01
aI00
aI01
aI00
aI00
aI00
aI00
aI00
aI00
aI00
aI00
aI00
aI01
aa(lp77
I01
aI00
aI00
aI01
aI00
aI00
aI00
aI00
aI00
aI01
aI01
aI01
aI00
aI01
aI00
aI01
aa(lp78
I01
aI00
aI01
aI01
aI01
aI00
aI01
aI00
aI00
aI00
aI01
aI00
aI00
aI01
aI00
aI01
aa(lp79
I01
aI00
aI00
aI01
aI00
aI00
aI01
aI00
aI00
aI01
aI01
aI00
aI00
aI00
aI00
aI01
aa(lp80
I01
aI00
aI00
aI00
aI00
aI01
aI01
aI00
aI00
aI01
aI00
aI00
aI01
aI00
aI00
aI01
aa(lp81
I01
aI00
aI01
aI00
aI00
aI01
aI00
aI00
aI00
aI01
aI00
aI01
aI01
aI01
aI00
aI01
aa(lp82
I01
aI00
aI01
aI00
aI01
aI01
aI01
aI00
aI00
aI00
aI00
aI00
aI01
aI00
aI00
aI01
aa(lp83
I01
aI00
aI00
aI00
aI00
aI00
aI00
aI00
aI00
aI00
aI01
aI00
aI01
aI00
aI01
aI01
aa(lp84
I01
aI01
aI00
aI01
aI01
aI01
aI00
aI01
aI01
aI00
aI01
aI00
aI00
aI00
aI00
aI01
aa(lp85
I01
aI00
aI00
aI01
aI00
aI01
aI00
aI01
aI00
aI00
aI01
aI01
aI00
aI01
aI00
aI01
aa(lp86
I01
aI01
aI00
aI01
aI00
aI01
aI01
aI01
aI01
aI00
aI00
aI01
aI01
aI01
aI00
aI01
aa(lp87
I01
aI00
aI00
aI00
aI00
aI01
aI00
aI01
aI01
aI00
aI01
aI01
aI00
aI01
aI00
aI01
aa(lp88
I01
aI01
aI00
aI01
aI01
aI01
aI00
aI00
aI01
aI00
aI00
aI01
aI00
aI00
aI00
aI01
aa(lp89
I01
aI00
aI00
aI00
aI00
aI00
aI00
aI01
aI01
aI01
aI00
aI01
aI01
aI00
aI01
aI01
aa(lp90
I01
aI00
aI01
aI00
aI01
aI00
aI01
aI01
aI00
aI00
aI00
aI00
aI00
aI00
aI00
aI01
aa(lp91
I01
aI01
aI01
aI01
aI01
aI00
aI00
aI00
aI00
aI00
aI01
aI01
aI01
aI01
aI01
aI01
aa(lp92
I01
aI00
aI00
aI00
aI00
aI00
aI01
aI00
aI01
aI00
aI00
aI00
aI00
aI00
aI00
aI01
aa(lp93
I01
aI00
aI01
aI01
aI01
aI01
aI01
aI01
aI01
aI01
aI01
aI01
aI01
aI01
aI01
aI01
aa(lp94
I01
aI00
aI00
aI00
aI00
aI00
aI00
aI00
aI00
aI00
aI00
aI00
aI00
aI00
aI00
aI01
aa(lp95
I01
aI01
aI01
aI01
aI01
aI01
aI01
aI01
aI01
aI01
aI01
aI01
aI01
aI01
aI01
aI01
aasg49
I16
sbsS'layoutText'
p96
(lp97
S'%%%%%%%%%%%%%%%%%%%%%%%%%%%%%%%%'
p98
aS'%   %. %.%.%       %     %.%.%4%'
p99
aS'% % %%       %%  %   %%%   %.%2%'
p100
aS'% % %. % %%%    %%%% .%..% % % %'
p101
aS'% % %% % ..% %   %   %%%%% % % %'
p102
aS'% %    %%%%% %%%   %%%.% o % % %'
p103
aS'% %% % ..%.  %.%%%       %   % %'
p104
aS'% %. %%.%%%%        %.%%%%  %% %'
p105
aS'% %%  %%%%.%        %%%%.%% .% %'
p106
aS'% %   %       %%%.%  .%.. % %% %'
p107
aS'% % % o %.%%%   %%% %%%%%    % %'
p108
aS'% % % %%%%%   %   % %.. % %% % %'
p109
aS'% % % %..%. %%%%    %%% % .% % %'
p110
aS'%1%.%   %%%   %  %%       %% % %'
p111
aS'%3%.%.%     %       %.%.% .%   %'
p112
aS'%%%%%%%%%%%%%%%%%%%%%%%%%%%%%%%%'
p113
asbsS'blueTeamName'
p114
S'Fakedummysubmission1'
p115
sS'actions'
p116
(lp117
(I0
S'North'
p118
tp119
a(I1
S'South'
p120
tp121
a(I2
g118
tp122
a(I3
g120
tp123
a(I0
g118
tp124
a(I1
g120
tp125
a(I2
g118
tp126
a(I3
g120
tp127
a(I0
g118
tp128
a(I1
g120
tp129
a(I2
g118
tp130
a(I3
g120
tp131
a(I0
g118
tp132
a(I1
g120
tp133
a(I2
g118
tp134
a(I3
g120
tp135
a(I0
g118
tp136
a(I1
g120
tp137
a(I2
g118
tp138
a(I3
g120
tp139
a(I0
g118
tp140
a(I1
g120
tp141
a(I2
g118
tp142
a(I3
g120
tp143
a(I0
g118
tp144
a(I1
g120
tp145
a(I2
g118
tp146
a(I3
g120
tp147
a(I0
g118
tp148
a(I1
g120
tp149
a(I2
g118
tp150
a(I3
g120
tp151
a(I0
g118
tp152
a(I1
g120
tp153
a(I2
g118
tp154
a(I3
g120
tp155
a(I0
g118
tp156
a(I1
g120
tp157
a(I2
g118
tp158
a(I3
g120
tp159
a(I0
g118
tp160
a(I1
g120
tp161
a(I2
g118
tp162
a(I3
g120
tp163
a(I0
g118
tp164
a(I1
g120
tp165
a(I2
g118
tp166
a(I3
g120
tp167
a(I0
S'East'
p168
tp169
a(I1
S'West'
p170
tp171
a(I2
g118
tp172
a(I3
g120
tp173
a(I0
g168
tp174
a(I1
g170
tp175
a(I2
g168
tp176
a(I3
g170
tp177
a(I0
g120
tp178
a(I1
g118
tp179
a(I2
g168
tp180
a(I3
g170
tp181
a(I0
g120
tp182
a(I1
g118
tp183
a(I2
g120
tp184
a(I3
g118
tp185
a(I0
g120
tp186
a(I1
g118
tp187
a(I2
g120
tp188
a(I3
g118
tp189
a(I0
g120
tp190
a(I1
g118
tp191
a(I2
g120
tp192
a(I3
g118
tp193
a(I0
g168
tp194
a(I1
g170
tp195
a(I2
g120
tp196
a(I3
g118
tp197
a(I0
g120
tp198
a(I1
g118
tp199
a(I2
g168
tp200
a(I3
g170
tp201
a(I0
g120
tp202
a(I1
g118
tp203
a(I2
g120
tp204
a(I3
g118
tp205
a(I0
g120
tp206
a(I1
g118
tp207
a(I2
g120
tp208
a(I3
g118
tp209
a(I0
g168
tp210
a(I1
g170
tp211
a(I2
g120
tp212
a(I3
g118
tp213
a(I0
g120
tp214
a(I1
g118
tp215
a(I2
g120
tp216
a(I3
g118
tp217
a(I0
g120
tp218
a(I1
g118
tp219
a(I2
g168
tp220
a(I3
g170
tp221
a(I0
g168
tp222
a(I1
g170
tp223
a(I2
g120
tp224
a(I3
g118
tp225
a(I0
g168
tp226
a(I1
g170
tp227
a(I2
g168
tp228
a(I3
g170
tp229
a(I0
g118
tp230
a(I1
g120
tp231
a(I2
g168
tp232
a(I3
g170
tp233
a(I0
g168
tp234
a(I1
g170
tp235
a(I2
g118
tp236
a(I3
g120
tp237
a(I0
g168
tp238
a(I1
g170
tp239
a(I2
g168
tp240
a(I3
g170
tp241
a(I0
g168
tp242
a(I1
g170
tp243
a(I2
g168
tp244
a(I3
g170
tp245
a(I0
g168
tp246
a(I1
g170
tp247
a(I2
g168
tp248
a(I3
g170
tp249
a(I0
g168
tp250
a(I1
g170
tp251
a(I2
g168
tp252
a(I3
g170
tp253
a(I0
g168
tp254
a(I1
g170
tp255
a(I2
g168
tp256
a(I3
g170
tp257
a(I0
g118
tp258
a(I1
g120
tp259
a(I2
g168
tp260
a(I3
g170
tp261
a(I0
g168
tp262
a(I1
g118
tp263
a(I2
g118
tp264
a(I3
S'Stop'
p265
tp266
a(I0
g168
tp267
a(I1
g120
tp268
a(I2
g168
tp269
a(I3
g168
tp270
a(I0
g118
tp271
a(I1
g120
tp272
a(I2
g168
tp273
a(I3
g120
tp274
a(I0
g170
tp275
a(I1
g118
tp276
a(I2
g168
tp277
a(I3
g120
tp278
a(I0
g170
tp279
a(I1
g120
tp280
a(I2
g118
tp281
a(I3
g170
tp282
a(I0
g120
tp283
a(I1
g118
tp284
a(I2
g120
tp285
a(I3
g170
tp286
a(I0
g120
tp287
a(I1
g170
tp288
a(I2
g170
tp289
a(I3
g118
tp290
a(I0
g120
tp291
a(I1
g168
tp292
a(I2
g170
tp293
a(I3
g168
tp294
a(I0
g168
tp295
a(I1
g118
tp296
a(I2
g170
tp297
a(I3
g118
tp298
a(I0
g168
tp299
a(I1
g120
tp300
a(I2
g120
tp301
a(I3
g265
tp302
a(I0
g120
tp303
a(I1
g170
tp304
a(I2
g120
tp305
a(I3
g168
tp306
a(I0
g168
tp307
a(I1
g170
tp308
a(I2
g168
tp309
a(I3
g120
tp310
a(I0
g120
tp311
a(I1
g168
tp312
a(I2
g168
tp313
a(I3
g170
tp314
a(I0
g168
tp315
a(I1
g168
tp316
a(I2
g120
tp317
a(I3
g118
tp318
a(I0
g168
tp319
a(I1
g170
tp320
a(I2
g168
tp321
a(I3
g168
tp322
a(I0
g168
tp323
a(I1
g170
tp324
a(I2
g168
tp325
a(I3
g120
tp326
a(I0
g120
tp327
a(I1
g170
tp328
a(I2
g120
tp329
a(I3
g118
tp330
a(I0
g168
tp331
a(I1
g170
tp332
a(I2
g168
tp333
a(I3
g170
tp334
a(I0
g168
tp335
a(I1
g118
tp336
a(I2
g168
tp337
a(I3
g265
tp338
a(I0
g120
tp339
a(I1
g120
tp340
a(I2
g118
tp341
a(I3
g168
tp342
a(I0
g118
tp343
a(I1
g170
tp344
a(I2
g120
tp345
a(I3
g120
tp346
a(I0
g168
tp347
a(I1
g170
tp348
a(I2
g170
tp349
a(I3
g120
tp350
a(I0
g168
tp351
a(I1
g120
tp352
a(I2
g170
tp353
a(I3
g120
tp354
a(I0
g120
tp355
a(I1
g120
tp356
a(I2
g170
tp357
a(I3
g120
tp358
a(I0
g118
tp359
a(I1
g170
tp360
a(I2
g120
tp361
a(I3
g265
tp362
a(I0
g118
tp363
a(I1
g170
tp364
a(I2
g118
tp365
a(I3
g120
tp366
a(I0
g118
tp367
a(I1
g118
tp368
a(I2
g120
tp369
a(I3
g120
tp370
a(I0
g170
tp371
a(I1
g120
tp372
a(I2
g170
tp373
a(I3
g120
tp374
a(I0
g170
tp375
a(I1
g170
tp376
a(I2
g168
tp377
a(I3
g120
tp378
a(I0
g168
tp379
a(I1
g120
tp380
a(I2
g118
tp381
a(I3
g170
tp382
a(I0
g168
tp383
a(I1
g118
tp384
a(I2
g168
tp385
a(I3
g170
tp386
a(I0
g120
tp387
a(I1
g168
tp388
a(I2
g168
tp389
a(I3
g170
tp390
a(I0
g120
tp391
a(I1
g168
tp392
a(I2
g168
tp393
a(I3
g118
tp394
a(I0
g168
tp395
a(I1
g168
tp396
a(I2
g118
tp397
a(I3
g118
tp398
a(I0
g168
tp399
a(I1
g118
tp400
a(I2
g118
tp401
a(I3
g168
tp402
a(I0
g120
tp403
a(I1
g118
tp404
a(I2
g118
tp405
a(I3
g168
tp406
a(I0
g168
tp407
a(I1
g118
tp408
a(I2
g118
tp409
a(I3
g168
tp410
a(I0
g170
tp411
a(I1
g170
tp412
a(I2
g118
tp413
a(I3
g118
tp414
a(I0
g118
tp415
a(I1
g170
tp416
a(I2
g118
tp417
a(I3
g118
tp418
a(I0
g118
tp419
a(I1
g168
tp420
a(I2
g168
tp421
a(I3
g118
tp422
a(I0
g168
tp423
a(I1
g168
tp424
a(I2
g168
tp425
a(I3
g118
tp426
a(I0
g170
tp427
a(I1
g120
tp428
a(I2
g168
tp429
a(I3
g118
tp430
a(I0
g118
tp431
a(I1
g120
tp432
a(I2
g168
tp433
a(I3
g118
tp434
a(I0
g118
tp435
a(I1
g120
tp436
a(I2
g168
tp437
a(I3
g168
tp438
a(I0
g118
tp439
a(I1
g168
tp440
a(I2
g118
tp441
a(I3
g168
tp442
a(I0
g170
tp443
a(I1
g120
tp444
a(I2
g168
tp445
a(I3
g168
tp446
a(I0
g118
tp447
a(I1
g118
tp448
a(I2
g170
tp449
a(I3
g168
tp450
a(I0
g120
tp451
a(I1
g120
tp452
a(I2
g120
tp453
a(I3
g265
tp454
a(I0
g170
tp455
a(I1
g118
tp456
a(I2
g170
tp457
a(I3
g120
tp458
a(I0
g168
tp459
a(I1
g120
tp460
a(I2
g170
tp461
a(I3
g120
tp462
a(I0
g168
tp463
a(I1
g120
tp464
a(I2
g118
tp465
a(I3
g120
tp466
a(I0
g120
tp467
a(I1
g170
tp468
a(I2
g120
tp469
a(I3
g120
tp470
a(I0
g168
tp471
a(I1
g170
tp472
a(I2
g170
tp473
a(I3
g120
tp474
a(I0
g168
tp475
a(I1
g120
tp476
a(I2
g120
tp477
a(I3
g120
tp478
a(I0
g118
tp479
a(I1
g170
tp480
a(I2
g118
tp481
a(I3
g120
tp482
a(I0
g118
tp483
a(I1
g168
tp484
a(I2
g170
tp485
a(I3
g120
tp486
a(I0
g168
tp487
a(I1
g120
tp488
a(I2
g170
tp489
a(I3
g120
tp490
a(I0
g170
tp491
a(I1
g120
tp492
a(I2
g170
tp493
a(I3
g120
tp494
a(I0
g118
tp495
a(I1
g170
tp496
a(I2
g120
tp497
a(I3
g120
tp498
a(I0
g118
tp499
a(I1
g170
tp500
a(I2
g170
tp501
a(I3
g120
tp502
a(I0
g168
tp503
a(I1
g170
tp504
a(I2
g120
tp505
a(I3
g120
tp506
a(I0
g118
tp507
a(I1
g170
tp508
a(I2
g120
tp509
a(I3
g170
tp510
a(I0
g118
tp511
a(I1
g118
tp512
a(I2
g118
tp513
a(I3
g170
tp514
a(I0
g118
tp515
a(I1
g118
tp516
a(I2
g168
tp517
a(I3
g118
tp518
a(I0
g118
tp519
a(I1
g168
tp520
a(I2
g118
tp521
a(I3
g118
tp522
a(I0
g118
tp523
a(I1
g170
tp524
a(I2
g118
tp525
a(I3
g118
tp526
a(I0
g120
tp527
a(I1
g120
tp528
a(I2
g118
tp529
a(I3
g118
tp530
a(I0
g120
tp531
a(I1
g170
tp532
a(I2
g118
tp533
a(I3
g170
tp534
a(I0
g120
tp535
a(I1
g170
tp536
a(I2
g168
tp537
a(I3
g118
tp538
a(I0
g120
tp539
a(I1
g120
tp540
a(I2
g168
tp541
a(I3
g118
tp542
a(I0
g118
tp543
a(I1
g118
tp544
a(I2
g118
tp545
a(I3
g118
tp546
a(I0
g118
tp547
a(I1
g118
tp548
a(I2
g168
tp549
a(I3
g118
tp550
a(I0
g118
tp551
a(I1
g118
tp552
a(I2
g170
tp553
a(I3
g168
tp554
a(I0
g118
tp555
a(I1
g118
tp556
a(I2
g118
tp557
a(I3
g118
tp558
a(I0
g120
tp559
a(I1
g118
tp560
a(I2
g118
tp561
a(I3
g118
tp562
a(I0
g120
tp563
a(I1
g120
tp564
a(I2
g168
tp565
a(I3
g265
tp566
a(I0
g118
tp567
a(I1
g168
tp568
a(I2
g168
tp569
a(I3
g118
tp570
a(I0
g120
tp571
a(I1
g170
tp572
a(I2
g168
tp573
a(I3
g120
tp574
a(I0
g118
tp575
a(I1
g118
tp576
a(I2
g168
tp577
a(I3
g120
tp578
a(I0
g118
tp579
a(I1
g118
tp580
a(I2
g120
tp581
a(I3
g120
tp582
a(I0
g118
tp583
a(I1
g170
tp584
a(I2
g120
tp585
a(I3
g170
tp586
a(I0
g118
tp587
a(I1
g118
tp588
a(I2
g170
tp589
asS'length'
p590
I1200
sS'agents'
p591
(lp592
(igame
Agent
p593
(dp594
S'index'
p595
I0
sba(igame
Agent
p596
(dp597
g595
I0
sba(igame
Agent
p598
(dp599
g595
I0
sba(igame
Agent
p600
(dp601
g595
I0
sbasS'redTeamName'
p602
S'GotoFail'
p603
s.