(dp1
S'layout'
p2
(ilayout
Layout
p3
(dp4
S'capsules'
p5
(lp6
(I6
I5
tp7
a(I25
I10
tp8
asS'numGhosts'
p9
I4
sS'food'
p10
(igame
Grid
p11
(dp12
S'CELLS_PER_INT'
p13
I30
sS'width'
p14
I32
sS'data'
p15
(lp16
(lp17
I00
aI00
aI00
aI00
aI00
aI00
aI00
aI00
aI00
aI00
aI00
aI00
aI00
aI00
aI00
aI00
aa(lp18
I00
aI00
aI00
aI00
aI00
aI00
aI00
aI00
aI00
aI00
aI00
aI00
aI00
aI00
aI00
aI00
aa(lp19
I00
aI00
aI00
aI00
aI00
aI00
aI00
aI00
aI00
aI00
aI00
aI00
aI00
aI00
aI00
aI00
aa(lp20
I00
aI01
aI01
aI00
aI00
aI00
aI00
aI00
aI01
aI00
aI00
aI00
aI00
aI00
aI00
aI00
aa(lp21
I00
aI00
aI00
aI00
aI00
aI00
aI00
aI00
aI00
aI00
aI00
aI00
aI00
aI00
aI00
aI00
aa(lp22
I00
aI01
aI00
aI00
aI00
aI00
aI00
aI00
aI00
aI00
aI00
aI00
aI01
aI00
aI01
aI00
aa(lp23
I00
aI00
aI00
aI00
aI00
aI00
aI00
aI00
aI00
aI00
aI00
aI00
aI00
aI00
aI00
aI00
aa(lp24
I00
aI00
aI00
aI01
aI00
aI00
aI00
aI00
aI01
aI01
aI00
aI00
aI00
aI00
aI00
aI00
aa(lp25
I00
aI00
aI00
aI01
aI00
aI00
aI00
aI00
aI00
aI01
aI00
aI00
aI00
aI00
aI01
aI00
aa(lp26
I00
aI00
aI00
aI00
aI00
aI01
aI00
aI00
aI00
aI00
aI00
aI01
aI00
aI00
aI00
aI00
aa(lp27
I00
aI00
aI00
aI01
aI00
aI00
aI00
aI01
aI00
aI01
aI00
aI01
aI00
aI00
aI01
aI00
aa(lp28
I00
aI00
aI00
aI00
aI00
aI00
aI00
aI00
aI00
aI00
aI00
aI00
aI00
aI00
aI00
aI00
aa(lp29
I00
aI00
aI00
aI00
aI00
aI00
aI00
aI00
aI00
aI00
aI00
aI00
aI00
aI00
aI00
aI00
aa(lp30
I00
aI00
aI00
aI00
aI00
aI00
aI00
aI00
aI00
aI00
aI00
aI00
aI00
aI00
aI00
aI00
aa(lp31
I00
aI00
aI00
aI00
aI00
aI00
aI00
aI00
aI00
aI01
aI00
aI00
aI00
aI00
aI00
aI00
aa(lp32
I00
aI00
aI00
aI00
aI00
aI00
aI00
aI00
aI00
aI00
aI00
aI00
aI00
aI00
aI00
aI00
aa(lp33
I00
aI00
aI00
aI00
aI00
aI00
aI00
aI00
aI00
aI00
aI00
aI00
aI00
aI00
aI00
aI00
aa(lp34
I00
aI00
aI00
aI00
aI00
aI00
aI01
aI00
aI00
aI00
aI00
aI00
aI00
aI00
aI00
aI00
aa(lp35
I00
aI00
aI00
aI00
aI00
aI00
aI00
aI00
aI00
aI00
aI00
aI00
aI00
aI00
aI00
aI00
aa(lp36
I00
aI00
aI00
aI00
aI00
aI00
aI00
aI00
aI00
aI00
aI00
aI00
aI00
aI00
aI00
aI00
aa(lp37
I00
aI00
aI00
aI00
aI00
aI00
aI00
aI00
aI00
aI00
aI00
aI00
aI00
aI00
aI00
aI00
aa(lp38
I00
aI01
aI00
aI00
aI01
aI00
aI01
aI00
aI01
aI00
aI00
aI00
aI01
aI00
aI00
aI00
aa(lp39
I00
aI00
aI00
aI00
aI01
aI00
aI00
aI00
aI00
aI00
aI01
aI00
aI00
aI00
aI00
aI00
aa(lp40
I00
aI01
aI00
aI00
aI00
aI00
aI01
aI00
aI00
aI00
aI00
aI00
aI01
aI00
aI00
aI00
aa(lp41
I00
aI00
aI00
aI00
aI00
aI00
aI01
aI01
aI00
aI00
aI00
aI00
aI01
aI00
aI00
aI00
aa(lp42
I00
aI00
aI00
aI00
aI00
aI00
aI00
aI00
aI00
aI00
aI00
aI00
aI00
aI00
aI00
aI00
aa(lp43
I00
aI01
aI00
aI01
aI00
aI00
aI00
aI00
aI00
aI00
aI00
aI00
aI00
aI00
aI01
aI00
aa(lp44
I00
aI00
aI00
aI00
aI00
aI00
aI00
aI00
aI00
aI00
aI00
aI00
aI00
aI00
aI00
aI00
aa(lp45
I00
aI00
aI00
aI00
aI00
aI00
aI00
aI01
aI00
aI00
aI00
aI00
aI00
aI01
aI01
aI00
aa(lp46
I00
aI00
aI00
aI00
aI00
aI00
aI00
aI00
aI00
aI00
aI00
aI00
aI00
aI00
aI00
aI00
aa(lp47
I00
aI00
aI00
aI00
aI00
aI00
aI00
aI00
aI00
aI00
aI00
aI00
aI00
aI00
aI00
aI00
aa(lp48
I00
aI00
aI00
aI00
aI00
aI00
aI00
aI00
aI00
aI00
aI00
aI00
aI00
aI00
aI00
aI00
aasS'height'
p49
I16
sbsS'agentPositions'
p50
(lp51
(I00
(I1
I2
tp52
tp53
a(I00
(I30
I13
tp54
tp55
a(I00
(I1
I1
tp56
tp57
a(I00
(I30
I14
tp58
tp59
asg49
I16
sg14
I32
sS'walls'
p60
(igame
Grid
p61
(dp62
g13
I30
sg14
I32
sg15
(lp63
(lp64
I01
aI01
aI01
aI01
aI01
aI01
aI01
aI01
aI01
aI01
aI01
aI01
aI01
aI01
aI01
aI01
aa(lp65
I01
aI00
aI00
aI00
aI00
aI00
aI00
aI00
aI00
aI00
aI00
aI00
aI00
aI00
aI00
aI01
aa(lp66
I01
aI01
aI01
aI01
aI01
aI01
aI01
aI01
aI01
aI01
aI01
aI01
aI01
aI01
aI00
aI01
aa(lp67
I01
aI00
aI00
aI00
aI00
aI00
aI00
aI01
aI00
aI01
aI00
aI00
aI00
aI00
aI00
aI01
aa(lp68
I01
aI01
aI01
aI01
aI01
aI01
aI00
aI00
aI00
aI00
aI00
aI01
aI01
aI01
aI01
aI01
aa(lp69
I01
aI00
aI00
aI00
aI00
aI00
aI00
aI00
aI01
aI01
aI00
aI01
aI00
aI01
aI00
aI01
aa(lp70
I01
aI01
aI00
aI01
aI01
aI00
aI01
aI01
aI01
aI00
aI00
aI00
aI00
aI00
aI00
aI01
aa(lp71
I01
aI00
aI00
aI00
aI01
aI00
aI00
aI01
aI00
aI00
aI01
aI01
aI01
aI00
aI01
aI01
aa(lp72
I01
aI00
aI01
aI00
aI01
aI01
aI00
aI01
aI01
aI00
aI01
aI00
aI00
aI00
aI00
aI01
aa(lp73
I01
aI00
aI01
aI01
aI01
aI00
aI00
aI01
aI01
aI01
aI01
aI00
aI01
aI00
aI01
aI01
aa(lp74
I01
aI00
aI01
aI00
aI01
aI01
aI00
aI00
aI01
aI00
aI01
aI00
aI01
aI00
aI00
aI01
aa(lp75
I01
aI00
aI00
aI00
aI00
aI01
aI00
aI01
aI01
aI00
aI01
aI01
aI01
aI00
aI01
aI01
aa(lp76
I01
aI01
aI00
aI01
aI00
aI01
aI00
aI00
aI00
aI00
aI00
aI00
aI00
aI00
aI00
aI01
aa(lp77
I01
aI00
aI00
aI01
aI00
aI00
aI00
aI00
aI00
aI01
aI01
aI01
aI00
aI01
aI00
aI01
aa(lp78
I01
aI00
aI01
aI01
aI01
aI00
aI01
aI00
aI00
aI00
aI01
aI00
aI00
aI01
aI00
aI01
aa(lp79
I01
aI00
aI00
aI01
aI00
aI00
aI01
aI00
aI00
aI01
aI01
aI00
aI00
aI00
aI00
aI01
aa(lp80
I01
aI00
aI00
aI00
aI00
aI01
aI01
aI00
aI00
aI01
aI00
aI00
aI01
aI00
aI00
aI01
aa(lp81
I01
aI00
aI01
aI00
aI00
aI01
aI00
aI00
aI00
aI01
aI00
aI01
aI01
aI01
aI00
aI01
aa(lp82
I01
aI00
aI01
aI00
aI01
aI01
aI01
aI00
aI00
aI00
aI00
aI00
aI01
aI00
aI00
aI01
aa(lp83
I01
aI00
aI00
aI00
aI00
aI00
aI00
aI00
aI00
aI00
aI01
aI00
aI01
aI00
aI01
aI01
aa(lp84
I01
aI01
aI00
aI01
aI01
aI01
aI00
aI01
aI01
aI00
aI01
aI00
aI00
aI00
aI00
aI01
aa(lp85
I01
aI00
aI00
aI01
aI00
aI01
aI00
aI01
aI00
aI00
aI01
aI01
aI00
aI01
aI00
aI01
aa(lp86
I01
aI01
aI00
aI01
aI00
aI01
aI01
aI01
aI01
aI00
aI00
aI01
aI01
aI01
aI00
aI01
aa(lp87
I01
aI00
aI00
aI00
aI00
aI01
aI00
aI01
aI01
aI00
aI01
aI01
aI00
aI01
aI00
aI01
aa(lp88
I01
aI01
aI00
aI01
aI01
aI01
aI00
aI00
aI01
aI00
aI00
aI01
aI00
aI00
aI00
aI01
aa(lp89
I01
aI00
aI00
aI00
aI00
aI00
aI00
aI01
aI01
aI01
aI00
aI01
aI01
aI00
aI01
aI01
aa(lp90
I01
aI00
aI01
aI00
aI01
aI00
aI01
aI01
aI00
aI00
aI00
aI00
aI00
aI00
aI00
aI01
aa(lp91
I01
aI01
aI01
aI01
aI01
aI00
aI00
aI00
aI00
aI00
aI01
aI01
aI01
aI01
aI01
aI01
aa(lp92
I01
aI00
aI00
aI00
aI00
aI00
aI01
aI00
aI01
aI00
aI00
aI00
aI00
aI00
aI00
aI01
aa(lp93
I01
aI00
aI01
aI01
aI01
aI01
aI01
aI01
aI01
aI01
aI01
aI01
aI01
aI01
aI01
aI01
aa(lp94
I01
aI00
aI00
aI00
aI00
aI00
aI00
aI00
aI00
aI00
aI00
aI00
aI00
aI00
aI00
aI01
aa(lp95
I01
aI01
aI01
aI01
aI01
aI01
aI01
aI01
aI01
aI01
aI01
aI01
aI01
aI01
aI01
aI01
aasg49
I16
sbsS'layoutText'
p96
(lp97
S'%%%%%%%%%%%%%%%%%%%%%%%%%%%%%%%%'
p98
aS'%   %. %.%.%       %     %.%.%4%'
p99
aS'% % %%       %%  %   %%%   %.%2%'
p100
aS'% % %. % %%%    %%%% .%..% % % %'
p101
aS'% % %% % ..% %   %   %%%%% % % %'
p102
aS'% %    %%%%% %%%   %%%.% o % % %'
p103
aS'% %% % ..%.  %.%%%       %   % %'
p104
aS'% %. %%.%%%%        %.%%%%  %% %'
p105
aS'% %%  %%%%.%        %%%%.%% .% %'
p106
aS'% %   %       %%%.%  .%.. % %% %'
p107
aS'% % % o %.%%%   %%% %%%%%    % %'
p108
aS'% % % %%%%%   %   % %.. % %% % %'
p109
aS'% % % %..%. %%%%    %%% % .% % %'
p110
aS'%1%.%   %%%   %  %%       %% % %'
p111
aS'%3%.%.%     %       %.%.% .%   %'
p112
aS'%%%%%%%%%%%%%%%%%%%%%%%%%%%%%%%%'
p113
asbsS'blueTeamName'
p114
S'DominantStrategy'
p115
sS'actions'
p116
(lp117
(I0
S'North'
p118
tp119
a(I1
S'South'
p120
tp121
a(I2
g118
tp122
a(I3
g120
tp123
a(I0
g118
tp124
a(I1
g120
tp125
a(I2
g118
tp126
a(I3
g120
tp127
a(I0
g118
tp128
a(I1
g120
tp129
a(I2
g118
tp130
a(I3
g120
tp131
a(I0
g118
tp132
a(I1
g120
tp133
a(I2
g118
tp134
a(I3
g120
tp135
a(I0
g118
tp136
a(I1
g120
tp137
a(I2
g118
tp138
a(I3
g120
tp139
a(I0
g118
tp140
a(I1
g120
tp141
a(I2
g118
tp142
a(I3
g120
tp143
a(I0
g118
tp144
a(I1
g120
tp145
a(I2
g118
tp146
a(I3
g120
tp147
a(I0
g118
tp148
a(I1
g120
tp149
a(I2
g118
tp150
a(I3
g120
tp151
a(I0
g118
tp152
a(I1
g120
tp153
a(I2
g118
tp154
a(I3
g120
tp155
a(I0
g118
tp156
a(I1
g120
tp157
a(I2
g118
tp158
a(I3
g120
tp159
a(I0
g118
tp160
a(I1
g120
tp161
a(I2
g118
tp162
a(I3
g120
tp163
a(I0
g118
tp164
a(I1
g120
tp165
a(I2
g118
tp166
a(I3
g120
tp167
a(I0
S'East'
p168
tp169
a(I1
S'West'
p170
tp171
a(I2
g118
tp172
a(I3
g120
tp173
a(I0
g168
tp174
a(I1
g170
tp175
a(I2
g168
tp176
a(I3
g170
tp177
a(I0
g120
tp178
a(I1
g118
tp179
a(I2
g168
tp180
a(I3
g170
tp181
a(I0
g120
tp182
a(I1
g118
tp183
a(I2
g120
tp184
a(I3
g118
tp185
a(I0
g120
tp186
a(I1
g118
tp187
a(I2
g120
tp188
a(I3
g118
tp189
a(I0
g120
tp190
a(I1
g118
tp191
a(I2
g120
tp192
a(I3
g118
tp193
a(I0
g168
tp194
a(I1
g170
tp195
a(I2
g120
tp196
a(I3
g118
tp197
a(I0
g120
tp198
a(I1
g118
tp199
a(I2
g168
tp200
a(I3
g170
tp201
a(I0
g120
tp202
a(I1
g118
tp203
a(I2
g120
tp204
a(I3
g118
tp205
a(I0
g120
tp206
a(I1
g118
tp207
a(I2
g120
tp208
a(I3
g118
tp209
a(I0
g168
tp210
a(I1
g170
tp211
a(I2
g120
tp212
a(I3
g118
tp213
a(I0
g120
tp214
a(I1
g118
tp215
a(I2
g168
tp216
a(I3
g118
tp217
a(I0
g120
tp218
a(I1
g118
tp219
a(I2
g120
tp220
a(I3
g170
tp221
a(I0
g168
tp222
a(I1
g170
tp223
a(I2
g120
tp224
a(I3
g118
tp225
a(I0
g168
tp226
a(I1
g170
tp227
a(I2
g168
tp228
a(I3
g170
tp229
a(I0
g118
tp230
a(I1
g120
tp231
a(I2
g168
tp232
a(I3
g170
tp233
a(I0
g168
tp234
a(I1
g170
tp235
a(I2
g118
tp236
a(I3
g120
tp237
a(I0
g168
tp238
a(I1
g170
tp239
a(I2
g168
tp240
a(I3
g170
tp241
a(I0
g168
tp242
a(I1
g170
tp243
a(I2
g168
tp244
a(I3
g170
tp245
a(I0
g168
tp246
a(I1
g170
tp247
a(I2
g168
tp248
a(I3
g170
tp249
a(I0
g168
tp250
a(I1
g170
tp251
a(I2
g168
tp252
a(I3
g170
tp253
a(I0
g168
tp254
a(I1
g170
tp255
a(I2
g168
tp256
a(I3
g170
tp257
a(I0
g118
tp258
a(I1
g120
tp259
a(I2
g118
tp260
a(I3
g170
tp261
a(I0
g168
tp262
a(I1
g170
tp263
a(I2
g168
tp264
a(I3
g120
tp265
a(I0
g118
tp266
a(I1
g170
tp267
a(I2
g120
tp268
a(I3
g170
tp269
a(I0
g170
tp270
a(I1
g170
tp271
a(I2
g118
tp272
a(I3
g170
tp273
a(I0
g168
tp274
a(I1
g120
tp275
a(I2
g168
tp276
a(I3
S'Stop'
p277
tp278
a(I0
g120
tp279
a(I1
g118
tp280
a(I2
g118
tp281
a(I3
g277
tp282
a(I0
g168
tp283
a(I1
g168
tp284
a(I2
g170
tp285
a(I3
g277
tp286
a(I0
g118
tp287
a(I1
g120
tp288
a(I2
g120
tp289
a(I3
g120
tp290
a(I0
g170
tp291
a(I1
g170
tp292
a(I2
g168
tp293
a(I3
g118
tp294
a(I0
g168
tp295
a(I1
g168
tp296
a(I2
g168
tp297
a(I3
g168
tp298
a(I0
g120
tp299
a(I1
g118
tp300
a(I2
g118
tp301
a(I3
g277
tp302
a(I0
g170
tp303
a(I1
g120
tp304
a(I2
g168
tp305
a(I3
g170
tp306
a(I0
g170
tp307
a(I1
g170
tp308
a(I2
g118
tp309
a(I3
g170
tp310
a(I0
g168
tp311
a(I1
g118
tp312
a(I2
g118
tp313
a(I3
g277
tp314
a(I0
g118
tp315
a(I1
g120
tp316
a(I2
g118
tp317
a(I3
g120
tp318
a(I0
g120
tp319
a(I1
g118
tp320
a(I2
g118
tp321
a(I3
g118
tp322
a(I0
g168
tp323
a(I1
g168
tp324
a(I2
g118
tp325
a(I3
g170
tp326
a(I0
g118
tp327
a(I1
g120
tp328
a(I2
g118
tp329
a(I3
g118
tp330
a(I0
g170
tp331
a(I1
g170
tp332
a(I2
g118
tp333
a(I3
g277
tp334
a(I0
g170
tp335
a(I1
g170
tp336
a(I2
g118
tp337
a(I3
g277
tp338
a(I0
g120
tp339
a(I1
g118
tp340
a(I2
g118
tp341
a(I3
g120
tp342
a(I0
g168
tp343
a(I1
g168
tp344
a(I2
g118
tp345
a(I3
g170
tp346
a(I0
g118
tp347
a(I1
g120
tp348
a(I2
g118
tp349
a(I3
g170
tp350
a(I0
g168
tp351
a(I1
g168
tp352
a(I2
g118
tp353
a(I3
g118
tp354
a(I0
g120
tp355
a(I1
g118
tp356
a(I2
g118
tp357
a(I3
g170
tp358
a(I0
g170
tp359
a(I1
g170
tp360
a(I2
g168
tp361
a(I3
g170
tp362
a(I0
g168
tp363
a(I1
g168
tp364
a(I2
g168
tp365
a(I3
g168
tp366
a(I0
g118
tp367
a(I1
g120
tp368
a(I2
g120
tp369
a(I3
g168
tp370
a(I0
g170
tp371
a(I1
g170
tp372
a(I2
g120
tp373
a(I3
g120
tp374
a(I0
g168
tp375
a(I1
g168
tp376
a(I2
g120
tp377
a(I3
g120
tp378
a(I0
g120
tp379
a(I1
g118
tp380
a(I2
g120
tp381
a(I3
g120
tp382
a(I0
g170
tp383
a(I1
g120
tp384
a(I2
g168
tp385
a(I3
g170
tp386
a(I0
g170
tp387
a(I1
g170
tp388
a(I2
g120
tp389
a(I3
g170
tp390
a(I0
g168
tp391
a(I1
g168
tp392
a(I2
g120
tp393
a(I3
g118
tp394
a(I0
g118
tp395
a(I1
g170
tp396
a(I2
g120
tp397
a(I3
g120
tp398
a(I0
g120
tp399
a(I1
g168
tp400
a(I2
g120
tp401
a(I3
g277
tp402
a(I0
g170
tp403
a(I1
g170
tp404
a(I2
g168
tp405
a(I3
g170
tp406
a(I0
g168
tp407
a(I1
g168
tp408
a(I2
g120
tp409
a(I3
g120
tp410
a(I0
g118
tp411
a(I1
g170
tp412
a(I2
g168
tp413
a(I3
g118
tp414
a(I0
g120
tp415
a(I1
g168
tp416
a(I2
g168
tp417
a(I3
g170
tp418
a(I0
g170
tp419
a(I1
g170
tp420
a(I2
g118
tp421
a(I3
g168
tp422
a(I0
g168
tp423
a(I1
g168
tp424
a(I2
g168
tp425
a(I3
g168
tp426
a(I0
g118
tp427
a(I1
g170
tp428
a(I2
g168
tp429
a(I3
g168
tp430
a(I0
g120
tp431
a(I1
g168
tp432
a(I2
g168
tp433
a(I3
g168
tp434
a(I0
g170
tp435
a(I1
g170
tp436
a(I2
g168
tp437
a(I3
g168
tp438
a(I0
g120
tp439
a(I1
g170
tp440
a(I2
g168
tp441
a(I3
g120
tp442
a(I0
g118
tp443
a(I1
g168
tp444
a(I2
g118
tp445
a(I3
g120
tp446
a(I0
g168
tp447
a(I1
g168
tp448
a(I2
g168
tp449
a(I3
g120
tp450
a(I0
g118
tp451
a(I1
g170
tp452
a(I2
g168
tp453
a(I3
g120
tp454
a(I0
g120
tp455
a(I1
g168
tp456
a(I2
g168
tp457
a(I3
g120
tp458
a(I0
g170
tp459
a(I1
g118
tp460
a(I2
g168
tp461
a(I3
g120
tp462
a(I0
g120
tp463
a(I1
g120
tp464
a(I2
g118
tp465
a(I3
g120
tp466
a(I0
g120
tp467
a(I1
g170
tp468
a(I2
g118
tp469
a(I3
g120
tp470
a(I0
g118
tp471
a(I1
g170
tp472
a(I2
g118
tp473
a(I3
g120
tp474
a(I0
g118
tp475
a(I1
g168
tp476
a(I2
g118
tp477
a(I3
g120
tp478
a(I0
g168
tp479
a(I1
g168
tp480
a(I2
g118
tp481
a(I3
g120
tp482
a(I0
g118
tp483
a(I1
g170
tp484
a(I2
g118
tp485
a(I3
g120
tp486
a(I0
g168
tp487
a(I1
g168
tp488
a(I2
g118
tp489
a(I3
g120
tp490
a(I0
g120
tp491
a(I1
g118
tp492
a(I2
g118
tp493
a(I3
g170
tp494
a(I0
g170
tp495
a(I1
g120
tp496
a(I2
g118
tp497
a(I3
g170
tp498
a(I0
g170
tp499
a(I1
g170
tp500
a(I2
g118
tp501
a(I3
g118
tp502
a(I0
g168
tp503
a(I1
g168
tp504
a(I2
g118
tp505
a(I3
g118
tp506
a(I0
g118
tp507
a(I1
g170
tp508
a(I2
g118
tp509
a(I3
g118
tp510
a(I0
g120
tp511
a(I1
g168
tp512
a(I2
g118
tp513
a(I3
g118
tp514
a(I0
g170
tp515
a(I1
g170
tp516
a(I2
g168
tp517
a(I3
g170
tp518
a(I0
g168
tp519
a(I1
g168
tp520
a(I2
g168
tp521
a(I3
g170
tp522
a(I0
g118
tp523
a(I1
g170
tp524
a(I2
g120
tp525
a(I3
g170
tp526
a(I0
g168
tp527
a(I1
g168
tp528
a(I2
g120
tp529
a(I3
g120
tp530
a(I0
g120
tp531
a(I1
g118
tp532
a(I2
g120
tp533
a(I3
g120
tp534
a(I0
g170
tp535
a(I1
g120
tp536
a(I2
g120
tp537
a(I3
g120
tp538
a(I0
g170
tp539
a(I1
g170
tp540
a(I2
g168
tp541
a(I3
g170
tp542
a(I0
g168
tp543
a(I1
g168
tp544
a(I2
g120
tp545
a(I3
g170
tp546
a(I0
g118
tp547
a(I1
g170
tp548
a(I2
g120
tp549
a(I3
g170
tp550
a(I0
g120
tp551
a(I1
g118
tp552
a(I2
g120
tp553
a(I3
g170
tp554
a(I0
g168
tp555
a(I1
g168
tp556
a(I2
g120
tp557
a(I3
g170
tp558
a(I0
g118
tp559
a(I1
g120
tp560
a(I2
g168
tp561
a(I3
g170
tp562
a(I0
g170
tp563
a(I1
g170
tp564
a(I2
g120
tp565
a(I3
g118
tp566
a(I0
g120
tp567
a(I1
g118
tp568
a(I2
g168
tp569
a(I3
g118
tp570
a(I0
g168
tp571
a(I1
g168
tp572
a(I2
g168
tp573
a(I3
g118
tp574
a(I0
g118
tp575
a(I1
g120
tp576
a(I2
g118
tp577
a(I3
g118
tp578
a(I0
g170
tp579
a(I1
g170
tp580
a(I2
g168
tp581
a(I3
g118
tp582
a(I0
g168
tp583
a(I1
g170
tp584
a(I2
g168
tp585
a(I3
g170
tp586
a(I0
g120
tp587
a(I1
g170
tp588
a(I2
g168
tp589
a(I3
g170
tp590
a(I0
g170
tp591
a(I1
g120
tp592
a(I2
g168
tp593
a(I3
g170
tp594
a(I0
g170
tp595
a(I1
g277
tp596
a(I2
g168
tp597
a(I3
g170
tp598
a(I0
g118
tp599
a(I1
g118
tp600
a(I2
g118
tp601
a(I3
g170
tp602
a(I0
g120
tp603
a(I1
g120
tp604
a(I2
g168
tp605
a(I3
g168
tp606
a(I0
g168
tp607
a(I1
g120
tp608
a(I2
g168
tp609
a(I3
g168
tp610
a(I0
g118
tp611
a(I1
g120
tp612
a(I2
g118
tp613
a(I3
g170
tp614
a(I0
g120
tp615
a(I1
g120
tp616
a(I2
g168
tp617
a(I3
g168
tp618
a(I0
g170
tp619
a(I1
g120
tp620
a(I2
g120
tp621
a(I3
g118
tp622
a(I0
g120
tp623
a(I1
g120
tp624
a(I2
g170
tp625
a(I3
g120
tp626
a(I0
g120
tp627
a(I1
g120
tp628
a(I2
g170
tp629
a(I3
g170
tp630
a(I0
g118
tp631
a(I1
g120
tp632
a(I2
g168
tp633
a(I3
g168
tp634
a(I0
g170
tp635
a(I1
g120
tp636
a(I2
g118
tp637
a(I3
g170
tp638
a(I0
g118
tp639
a(I1
g120
tp640
a(I2
g168
tp641
a(I3
g168
tp642
a(I0
g168
tp643
a(I1
g120
tp644
a(I2
g120
tp645
a(I3
g118
tp646
a(I0
g120
tp647
a(I1
g120
tp648
a(I2
g170
tp649
a(I3
g120
tp650
a(I0
g120
tp651
a(I1
g170
tp652
a(I2
g170
tp653
a(I3
g170
tp654
a(I0
g118
tp655
a(I1
g170
tp656
a(I2
g168
tp657
a(I3
g168
tp658
a(I0
g118
tp659
a(I1
g118
tp660
a(I2
g168
tp661
a(I3
g118
tp662
a(I0
g170
tp663
a(I1
g118
tp664
a(I2
g168
tp665
a(I3
g120
tp666
a(I0
g120
tp667
a(I1
g118
tp668
a(I2
g118
tp669
a(I3
g170
tp670
a(I0
g118
tp671
a(I1
g118
tp672
a(I2
g118
tp673
a(I3
g170
tp674
a(I0
g168
tp675
a(I1
g170
tp676
a(I2
g118
tp677
a(I3
g168
tp678
a(I0
g168
tp679
a(I1
g170
tp680
a(I2
g118
tp681
a(I3
g168
tp682
a(I0
g118
tp683
a(I1
g170
tp684
a(I2
g118
tp685
a(I3
g170
tp686
a(I0
g120
tp687
a(I1
g120
tp688
a(I2
g118
tp689
a(I3
g168
tp690
a(I0
g170
tp691
a(I1
g120
tp692
a(I2
g118
tp693
a(I3
g170
tp694
a(I0
g168
tp695
a(I1
g120
tp696
a(I2
g118
tp697
a(I3
g168
tp698
a(I0
g118
tp699
a(I1
g170
tp700
a(I2
g118
tp701
a(I3
g170
tp702
a(I0
g168
tp703
a(I1
g170
tp704
a(I2
g118
tp705
a(I3
g168
tp706
a(I0
g120
tp707
a(I1
g170
tp708
a(I2
g118
tp709
a(I3
g118
tp710
a(I0
g170
tp711
a(I1
g170
tp712
a(I2
g118
tp713
a(I3
g120
tp714
a(I0
g170
tp715
a(I1
g170
tp716
a(I2
g118
tp717
a(I3
g170
tp718
a(I0
g168
tp719
a(I1
g170
tp720
a(I2
g168
tp721
a(I3
g168
tp722
a(I0
g118
tp723
a(I1
g118
tp724
a(I2
g168
tp725
a(I3
g170
tp726
a(I0
g120
tp727
a(I1
g118
tp728
a(I2
g120
tp729
a(I3
g168
tp730
a(I0
g170
tp731
a(I1
g118
tp732
a(I2
g120
tp733
a(I3
g170
tp734
a(I0
g168
tp735
a(I1
g118
tp736
a(I2
g120
tp737
a(I3
g168
tp738
a(I0
g118
tp739
a(I1
g118
tp740
a(I2
g120
tp741
a(I3
g170
tp742
a(I0
g168
tp743
a(I1
g170
tp744
a(I2
g168
tp745
a(I3
g170
tp746
a(I0
g170
tp747
a(I1
g170
tp748
a(I2
g120
tp749
a(I3
g170
tp750
a(I0
g120
tp751
a(I1
g170
tp752
a(I2
g120
tp753
a(I3
g120
tp754
a(I0
g170
tp755
a(I1
g170
tp756
a(I2
g120
tp757
a(I3
g120
tp758
a(I0
g168
tp759
a(I1
g168
tp760
a(I2
g168
tp761
a(I3
g120
tp762
a(I0
g118
tp763
a(I1
g170
tp764
a(I2
g120
tp765
a(I3
g170
tp766
a(I0
g120
tp767
a(I1
g168
tp768
a(I2
g120
tp769
a(I3
g170
tp770
a(I0
g170
tp771
a(I1
g170
tp772
a(I2
g168
tp773
a(I3
g120
tp774
a(I0
g168
tp775
a(I1
g168
tp776
a(I2
g168
tp777
a(I3
g277
tp778
a(I0
g118
tp779
a(I1
g170
tp780
a(I2
g118
tp781
a(I3
g118
tp782
a(I0
g120
tp783
a(I1
g168
tp784
a(I2
g168
tp785
a(I3
g168
tp786
a(I0
g170
tp787
a(I1
g170
tp788
a(I2
g168
tp789
a(I3
g168
tp790
a(I0
g168
tp791
a(I1
g168
tp792
a(I2
g168
tp793
a(I3
g118
tp794
a(I0
g118
tp795
a(I1
g170
tp796
a(I2
g168
tp797
a(I3
g118
tp798
a(I0
g168
tp799
a(I1
g168
tp800
a(I2
g168
tp801
a(I3
g118
tp802
a(I0
g120
tp803
a(I1
g118
tp804
a(I2
g168
tp805
a(I3
g168
tp806
a(I0
g170
tp807
a(I1
g120
tp808
a(I2
g120
tp809
a(I3
g120
tp810
a(I0
g170
tp811
a(I1
g170
tp812
a(I2
g118
tp813
a(I3
g120
tp814
a(I0
g168
tp815
a(I1
g168
tp816
a(I2
g170
tp817
a(I3
g120
tp818
a(I0
g118
tp819
a(I1
g170
tp820
a(I2
g118
tp821
a(I3
g120
tp822
a(I0
g168
tp823
a(I1
g168
tp824
a(I2
g168
tp825
a(I3
g120
tp826
a(I0
g120
tp827
a(I1
g118
tp828
a(I2
g120
tp829
a(I3
g120
tp830
a(I0
g170
tp831
a(I1
g120
tp832
a(I2
g120
tp833
a(I3
g120
tp834
a(I0
g170
tp835
a(I1
g170
tp836
a(I2
g118
tp837
a(I3
g120
tp838
a(I0
g168
tp839
a(I1
g168
tp840
a(I2
g118
tp841
a(I3
g120
tp842
a(I0
g118
tp843
a(I1
g170
tp844
a(I2
g168
tp845
a(I3
g120
tp846
a(I0
g168
tp847
a(I1
g168
tp848
a(I2
g168
tp849
a(I3
g120
tp850
a(I0
g120
tp851
a(I1
g118
tp852
a(I2
g118
tp853
a(I3
g120
tp854
a(I0
g170
tp855
a(I1
g120
tp856
a(I2
g168
tp857
a(I3
g120
tp858
a(I0
g170
tp859
a(I1
g118
tp860
a(I2
g118
tp861
a(I3
g170
tp862
a(I0
g120
tp863
a(I1
g120
tp864
a(I2
g118
tp865
a(I3
g170
tp866
a(I0
g120
tp867
a(I1
g170
tp868
a(I2
g118
tp869
a(I3
g118
tp870
a(I0
g118
tp871
a(I1
g170
tp872
a(I2
g118
tp873
a(I3
g118
tp874
a(I0
g118
tp875
a(I1
g168
tp876
a(I2
g118
tp877
a(I3
g118
tp878
a(I0
g168
tp879
a(I1
g168
tp880
a(I2
g118
tp881
a(I3
g118
tp882
a(I0
g118
tp883
a(I1
g170
tp884
a(I2
g118
tp885
a(I3
g170
tp886
a(I0
g120
tp887
a(I1
g168
tp888
a(I2
g118
tp889
a(I3
g170
tp890
a(I0
g170
tp891
a(I1
g170
tp892
a(I2
g118
tp893
a(I3
g170
tp894
a(I0
g168
tp895
a(I1
g168
tp896
a(I2
g118
tp897
a(I3
g120
tp898
a(I0
g118
tp899
a(I1
g170
tp900
a(I2
g118
tp901
a(I3
g120
tp902
a(I0
g168
tp903
a(I1
g168
tp904
a(I2
g118
tp905
a(I3
g120
tp906
a(I0
g120
tp907
a(I1
g118
tp908
a(I2
g118
tp909
a(I3
g170
tp910
a(I0
g170
tp911
a(I1
g120
tp912
a(I2
g168
tp913
a(I3
g170
tp914
a(I0
g170
tp915
a(I1
g170
tp916
a(I2
g168
tp917
a(I3
g170
tp918
a(I0
g168
tp919
a(I1
g168
tp920
a(I2
g120
tp921
a(I3
g170
tp922
a(I0
g118
tp923
a(I1
g170
tp924
a(I2
g120
tp925
a(I3
g170
tp926
a(I0
g168
tp927
a(I1
g168
tp928
a(I2
g120
tp929
a(I3
g170
tp930
a(I0
g120
tp931
a(I1
g118
tp932
a(I2
g120
tp933
a(I3
g120
tp934
a(I0
g170
tp935
a(I1
g120
tp936
a(I2
g168
tp937
a(I3
g170
tp938
a(I0
g170
tp939
a(I1
g170
tp940
a(I2
g120
tp941
a(I3
g170
tp942
a(I0
g168
tp943
a(I1
g168
tp944
a(I2
g120
tp945
a(I3
g170
tp946
a(I0
g118
tp947
a(I1
g170
tp948
a(I2
g120
tp949
a(I3
g277
tp950
a(I0
g168
tp951
a(I1
g168
tp952
a(I2
g120
tp953
a(I3
g277
tp954
a(I0
g120
tp955
a(I1
g118
tp956
a(I2
g168
tp957
a(I3
g170
tp958
a(I0
g170
tp959
a(I1
g120
tp960
a(I2
g120
tp961
a(I3
g170
tp962
a(I0
g170
tp963
a(I1
g170
tp964
a(I2
g168
tp965
a(I3
g277
tp966
a(I0
g168
tp967
a(I1
g168
tp968
a(I2
g168
tp969
a(I3
g168
tp970
a(I0
g118
tp971
a(I1
g170
tp972
a(I2
g118
tp973
a(I3
g168
tp974
a(I0
g120
tp975
a(I1
g168
tp976
a(I2
g168
tp977
a(I3
g118
tp978
a(I0
g170
tp979
a(I1
g170
tp980
a(I2
g168
tp981
a(I3
g118
tp982
a(I0
g168
tp983
a(I1
g168
tp984
a(I2
g168
tp985
a(I3
g168
tp986
a(I0
g118
tp987
a(I1
g170
tp988
a(I2
g168
tp989
a(I3
g168
tp990
a(I0
g120
tp991
a(I1
g168
tp992
a(I2
g168
tp993
a(I3
g168
tp994
a(I0
g170
tp995
a(I1
g170
tp996
a(I2
g118
tp997
a(I3
g118
tp998
a(I0
g168
tp999
a(I1
g168
tp1000
a(I2
g168
tp1001
a(I3
g118
tp1002
a(I0
g118
tp1003
a(I1
g170
tp1004
a(I2
g168
tp1005
a(I3
g118
tp1006
a(I0
g168
tp1007
a(I1
g168
tp1008
a(I2
g168
tp1009
a(I3
g118
tp1010
a(I0
g120
tp1011
a(I1
g118
tp1012
a(I2
g118
tp1013
a(I3
g170
tp1014
a(I0
g170
tp1015
a(I1
g120
tp1016
a(I2
g168
tp1017
a(I3
g170
tp1018
a(I0
g170
tp1019
a(I1
g118
tp1020
a(I2
g118
tp1021
a(I3
g170
tp1022
a(I0
g120
tp1023
a(I1
g120
tp1024
a(I2
g118
tp1025
a(I3
g170
tp1026
a(I0
g120
tp1027
a(I1
g170
tp1028
a(I2
g118
tp1029
a(I3
g277
tp1030
a(I0
g168
tp1031
a(I1
g170
tp1032
a(I2
g118
tp1033
a(I3
g168
tp1034
a(I0
g168
tp1035
a(I1
g170
tp1036
a(I2
g118
tp1037
a(I3
g168
tp1038
a(I0
g120
tp1039
a(I1
g120
tp1040
a(I2
g118
tp1041
a(I3
g168
tp1042
a(I0
g168
tp1043
a(I1
g120
tp1044
a(I2
g118
tp1045
a(I3
g168
tp1046
a(I0
g120
tp1047
a(I1
g120
tp1048
a(I2
g118
tp1049
a(I3
g120
tp1050
a(I0
g168
tp1051
a(I1
g170
tp1052
a(I2
g118
tp1053
a(I3
g120
tp1054
a(I0
g118
tp1055
a(I1
g170
tp1056
a(I2
g118
tp1057
a(I3
g120
tp1058
a(I0
g170
tp1059
a(I1
g120
tp1060
a(I2
g118
tp1061
a(I3
g120
tp1062
a(I0
g120
tp1063
a(I1
g170
tp1064
a(I2
g118
tp1065
a(I3
g170
tp1066
a(I0
g120
tp1067
a(I1
g168
tp1068
a(I2
g118
tp1069
a(I3
g170
tp1070
a(I0
g120
tp1071
a(I1
g120
tp1072
a(I2
g168
tp1073
a(I3
g170
tp1074
a(I0
g168
tp1075
a(I1
g120
tp1076
a(I2
g168
tp1077
a(I3
g168
tp1078
a(I0
g168
tp1079
a(I1
g170
tp1080
a(I2
g120
tp1081
a(I3
g168
tp1082
a(I0
g168
tp1083
a(I1
g170
tp1084
a(I2
g120
tp1085
a(I3
g168
tp1086
a(I0
g118
tp1087
a(I1
g170
tp1088
a(I2
g120
tp1089
a(I3
g120
tp1090
a(I0
g118
tp1091
a(I1
g168
tp1092
a(I2
g120
tp1093
a(I3
g120
tp1094
a(I0
g118
tp1095
a(I1
g168
tp1096
a(I2
g168
tp1097
a(I3
g170
tp1098
a(I0
g118
tp1099
a(I1
g168
tp1100
a(I2
g120
tp1101
a(I3
g170
tp1102
a(I0
g118
tp1103
a(I1
g118
tp1104
a(I2
g120
tp1105
a(I3
g170
tp1106
a(I0
g118
tp1107
a(I1
g118
tp1108
a(I2
g120
tp1109
a(I3
g170
tp1110
a(I0
g118
tp1111
a(I1
g118
tp1112
a(I2
g168
tp1113
a(I3
g170
tp1114
a(I0
g118
tp1115
a(I1
g120
tp1116
a(I2
g120
tp1117
a(I3
g170
tp1118
a(I0
g118
tp1119
a(I1
g120
tp1120
a(I2
g120
tp1121
a(I3
g118
tp1122
a(I0
g118
tp1123
a(I1
g277
tp1124
a(I2
g168
tp1125
a(I3
g170
tp1126
a(I0
g118
tp1127
a(I1
g277
tp1128
a(I2
g168
tp1129
a(I3
g170
tp1130
a(I0
g118
tp1131
a(I1
g118
tp1132
a(I2
g118
tp1133
a(I3
g120
tp1134
a(I0
g118
tp1135
a(I1
g118
tp1136
a(I2
g168
tp1137
a(I3
g170
tp1138
a(I0
g168
tp1139
a(I1
g168
tp1140
a(I2
g168
tp1141
a(I3
g170
tp1142
a(I0
g168
tp1143
a(I1
g168
tp1144
a(I2
g168
tp1145
a(I3
g170
tp1146
a(I0
g120
tp1147
a(I1
g118
tp1148
a(I2
g168
tp1149
a(I3
g170
tp1150
a(I0
g120
tp1151
a(I1
g118
tp1152
a(I2
g168
tp1153
a(I3
g168
tp1154
a(I0
g120
tp1155
a(I1
g118
tp1156
a(I2
g168
tp1157
a(I3
g168
tp1158
a(I0
g120
tp1159
a(I1
g168
tp1160
a(I2
g118
tp1161
a(I3
g168
tp1162
a(I0
g168
tp1163
a(I1
g118
tp1164
a(I2
g168
tp1165
a(I3
g168
tp1166
a(I0
g120
tp1167
a(I1
g168
tp1168
a(I2
g168
tp1169
a(I3
g118
tp1170
a(I0
g120
tp1171
a(I1
g168
tp1172
a(I2
g118
tp1173
a(I3
g118
tp1174
a(I0
g120
tp1175
a(I1
g120
tp1176
a(I2
g168
tp1177
a(I3
g277
tp1178
a(I0
g168
tp1179
a(I1
g118
tp1180
a(I2
g118
tp1181
a(I3
g118
tp1182
a(I0
g120
tp1183
a(I1
g170
tp1184
a(I2
g118
tp1185
a(I3
g168
tp1186
a(I0
g120
tp1187
a(I1
g170
tp1188
a(I2
g118
tp1189
a(I3
g168
tp1190
a(I0
g168
tp1191
a(I1
g170
tp1192
a(I2
g118
tp1193
a(I3
g118
tp1194
a(I0
g168
tp1195
a(I1
g170
tp1196
a(I2
g118
tp1197
a(I3
g118
tp1198
a(I0
g118
tp1199
a(I1
g118
tp1200
a(I2
g118
tp1201
a(I3
g170
tp1202
a(I0
g168
tp1203
a(I1
g118
tp1204
a(I2
g118
tp1205
a(I3
g118
tp1206
a(I0
g168
tp1207
a(I1
g118
tp1208
a(I2
g118
tp1209
a(I3
g118
tp1210
a(I0
g168
tp1211
a(I1
g118
tp1212
a(I2
g118
tp1213
a(I3
g277
tp1214
a(I0
g168
tp1215
a(I1
g118
tp1216
a(I2
g118
tp1217
a(I3
g120
tp1218
a(I0
g168
tp1219
a(I1
g170
tp1220
a(I2
g118
tp1221
a(I3
g168
tp1222
a(I0
g168
tp1223
a(I1
g170
tp1224
a(I2
g118
tp1225
a(I3
g168
tp1226
a(I0
g118
tp1227
a(I1
g118
tp1228
a(I2
g118
tp1229
a(I3
g118
tp1230
a(I0
g168
tp1231
a(I1
g120
tp1232
a(I2
g168
tp1233
a(I3
g168
tp1234
a(I0
g168
tp1235
a(I1
g170
tp1236
a(I2
g168
tp1237
a(I3
g168
tp1238
a(I0
g118
tp1239
a(I1
g170
tp1240
a(I2
g120
tp1241
a(I3
g120
tp1242
a(I0
g170
tp1243
a(I1
g118
tp1244
a(I2
g120
tp1245
a(I3
g170
tp1246
a(I0
g120
tp1247
a(I1
g120
tp1248
a(I2
g120
tp1249
a(I3
g118
tp1250
a(I0
g170
tp1251
a(I1
g120
tp1252
a(I2
g120
tp1253
a(I3
g170
tp1254
a(I0
g120
tp1255
a(I1
g120
tp1256
a(I2
g168
tp1257
a(I3
g120
tp1258
a(I0
g120
tp1259
a(I1
g168
tp1260
a(I2
g120
tp1261
a(I3
g168
tp1262
a(I0
g168
tp1263
a(I1
g170
tp1264
a(I2
g120
tp1265
a(I3
g168
tp1266
a(I0
g168
tp1267
a(I1
g118
tp1268
a(I2
g120
tp1269
a(I3
g168
tp1270
a(I0
g120
tp1271
a(I1
g118
tp1272
a(I2
g168
tp1273
a(I3
g168
tp1274
a(I0
g168
tp1275
a(I1
g168
tp1276
a(I2
g120
tp1277
a(I3
g168
tp1278
a(I0
g120
tp1279
a(I1
g168
tp1280
a(I2
g120
tp1281
a(I3
g120
tp1282
a(I0
g168
tp1283
a(I1
g168
tp1284
a(I2
g168
tp1285
a(I3
g120
tp1286
a(I0
g118
tp1287
a(I1
g168
tp1288
a(I2
g168
tp1289
a(I3
g120
tp1290
a(I0
g170
tp1291
a(I1
g120
tp1292
a(I2
g118
tp1293
a(I3
g120
tp1294
a(I0
g120
tp1295
a(I1
g120
tp1296
a(I2
g168
tp1297
a(I3
g170
tp1298
a(I0
g120
tp1299
a(I1
g120
tp1300
a(I2
g168
tp1301
a(I3
g170
tp1302
a(I0
g120
tp1303
a(I1
g120
tp1304
a(I2
g168
tp1305
a(I3
g170
tp1306
a(I0
g168
tp1307
a(I1
g120
tp1308
a(I2
g168
tp1309
a(I3
g168
tp1310
a(I0
g168
tp1311
a(I1
g120
tp1312
a(I2
g168
tp1313
a(I3
g168
tp1314
a(I0
g168
tp1315
a(I1
g168
tp1316
a(I2
g168
tp1317
a(I3
g168
tp1318
a(I0
g118
tp1319
a(I1
g168
tp1320
a(I2
g118
tp1321
a(I3
g120
tp1322
asS'length'
p1323
I1200
sS'agents'
p1324
(lp1325
(igame
Agent
p1326
(dp1327
S'index'
p1328
I0
sba(igame
Agent
p1329
(dp1330
g1328
I0
sba(igame
Agent
p1331
(dp1332
g1328
I0
sba(igame
Agent
p1333
(dp1334
g1328
I0
sbasS'redTeamName'
p1335
S'GotoFail'
p1336
s.